
build/microcntr.elf:     file format elf32-littlearm


Disassembly of section .vectors:

08000000 <__vectors_base__>:
 8000000:	20000400 	.word	0x20000400
 8000004:	080002fd 	.word	0x080002fd
 8000008:	080002ff 	.word	0x080002ff
 800000c:	080002ff 	.word	0x080002ff
 8000010:	080002ff 	.word	0x080002ff
 8000014:	080002ff 	.word	0x080002ff
 8000018:	080002ff 	.word	0x080002ff
 800001c:	080002ff 	.word	0x080002ff
 8000020:	080002ff 	.word	0x080002ff
 8000024:	080002ff 	.word	0x080002ff
 8000028:	080002ff 	.word	0x080002ff
 800002c:	08004121 	.word	0x08004121
 8000030:	080002ff 	.word	0x080002ff
 8000034:	080002ff 	.word	0x080002ff
 8000038:	080002ff 	.word	0x080002ff
 800003c:	080002ff 	.word	0x080002ff
 8000040:	080002ff 	.word	0x080002ff
 8000044:	080002ff 	.word	0x080002ff
 8000048:	080002ff 	.word	0x080002ff
 800004c:	080002ff 	.word	0x080002ff
 8000050:	080002ff 	.word	0x080002ff
 8000054:	080002ff 	.word	0x080002ff
 8000058:	080002ff 	.word	0x080002ff
 800005c:	080002ff 	.word	0x080002ff
 8000060:	080002ff 	.word	0x080002ff
 8000064:	080002ff 	.word	0x080002ff
 8000068:	080002ff 	.word	0x080002ff
 800006c:	080023c1 	.word	0x080023c1
 8000070:	08002461 	.word	0x08002461
 8000074:	08002501 	.word	0x08002501
 8000078:	080025a1 	.word	0x080025a1
 800007c:	08002641 	.word	0x08002641
 8000080:	080026e1 	.word	0x080026e1
 8000084:	08002781 	.word	0x08002781
 8000088:	08002261 	.word	0x08002261
 800008c:	080002ff 	.word	0x080002ff
 8000090:	080002ff 	.word	0x080002ff
 8000094:	080002ff 	.word	0x080002ff
 8000098:	080002ff 	.word	0x080002ff
 800009c:	080002ff 	.word	0x080002ff
 80000a0:	080002ff 	.word	0x080002ff
 80000a4:	080002ff 	.word	0x080002ff
 80000a8:	08001fc1 	.word	0x08001fc1
 80000ac:	080002ff 	.word	0x080002ff
 80000b0:	080002ff 	.word	0x080002ff
 80000b4:	080002ff 	.word	0x080002ff
 80000b8:	080002ff 	.word	0x080002ff
 80000bc:	080002ff 	.word	0x080002ff
 80000c0:	080002ff 	.word	0x080002ff
 80000c4:	08002dc1 	.word	0x08002dc1
 80000c8:	08002ff1 	.word	0x08002ff1
 80000cc:	080002ff 	.word	0x080002ff
 80000d0:	080002ff 	.word	0x080002ff
 80000d4:	08001ec1 	.word	0x08001ec1
 80000d8:	08001f41 	.word	0x08001f41
 80000dc:	080002ff 	.word	0x080002ff
 80000e0:	080002ff 	.word	0x080002ff
 80000e4:	080002ff 	.word	0x080002ff
 80000e8:	080002ff 	.word	0x080002ff
 80000ec:	080002ff 	.word	0x080002ff
 80000f0:	080002ff 	.word	0x080002ff
 80000f4:	080002ff 	.word	0x080002ff
 80000f8:	080002ff 	.word	0x080002ff
 80000fc:	08002821 	.word	0x08002821
 8000100:	080002ff 	.word	0x080002ff
 8000104:	080002ff 	.word	0x080002ff
 8000108:	080002ff 	.word	0x080002ff
 800010c:	080002ff 	.word	0x080002ff
 8000110:	080002ff 	.word	0x080002ff
 8000114:	080002ff 	.word	0x080002ff
 8000118:	080021a1 	.word	0x080021a1
 800011c:	080002ff 	.word	0x080002ff
 8000120:	080028c1 	.word	0x080028c1
 8000124:	08002961 	.word	0x08002961
 8000128:	08002a01 	.word	0x08002a01
 800012c:	08002aa1 	.word	0x08002aa1
 8000130:	08002b41 	.word	0x08002b41
 8000134:	080002ff 	.word	0x080002ff
 8000138:	080002ff 	.word	0x080002ff
 800013c:	080002ff 	.word	0x080002ff
 8000140:	080002ff 	.word	0x080002ff
 8000144:	080002ff 	.word	0x080002ff
 8000148:	080002ff 	.word	0x080002ff
 800014c:	080002ff 	.word	0x080002ff
 8000150:	08002be1 	.word	0x08002be1
 8000154:	08002c81 	.word	0x08002c81
 8000158:	08002d21 	.word	0x08002d21
 800015c:	080002ff 	.word	0x080002ff
 8000160:	080002ff 	.word	0x080002ff
 8000164:	080002ff 	.word	0x080002ff
 8000168:	080002ff 	.word	0x080002ff
 800016c:	080002ff 	.word	0x080002ff
 8000170:	080002ff 	.word	0x080002ff
 8000174:	080002ff 	.word	0x080002ff
 8000178:	080002ff 	.word	0x080002ff
 800017c:	080002ff 	.word	0x080002ff
 8000180:	080002ff 	.word	0x080002ff
 8000184:	080002ff 	.word	0x080002ff
 8000188:	080002ff 	.word	0x080002ff
 800018c:	080002ff 	.word	0x080002ff
 8000190:	080002ff 	.word	0x080002ff
 8000194:	080002ff 	.word	0x080002ff
 8000198:	080002ff 	.word	0x080002ff
 800019c:	080002ff 	.word	0x080002ff
 80001a0:	080002ff 	.word	0x080002ff
 80001a4:	080002ff 	.word	0x080002ff
 80001a8:	080002ff 	.word	0x080002ff
 80001ac:	080002ff 	.word	0x080002ff
 80001b0:	080002ff 	.word	0x080002ff
 80001b4:	080002ff 	.word	0x080002ff
 80001b8:	080002ff 	.word	0x080002ff
 80001bc:	080002ff 	.word	0x080002ff
 80001c0:	080002ff 	.word	0x080002ff
 80001c4:	080002ff 	.word	0x080002ff
 80001c8:	080002ff 	.word	0x080002ff
 80001cc:	080002ff 	.word	0x080002ff
 80001d0:	080002ff 	.word	0x080002ff
 80001d4:	080002ff 	.word	0x080002ff
 80001d8:	080002ff 	.word	0x080002ff
 80001dc:	080002ff 	.word	0x080002ff

Disassembly of section .text:

080001e0 <_crt0_entry>:
                .align  2
                .thumb_func
                .global _crt0_entry
_crt0_entry:
                /* Interrupts are globally masked initially.*/
                cpsid   i
 80001e0:	b672      	cpsid	i

#if CRT0_FORCE_MSP_INIT == TRUE
                /* MSP stack pointers initialization.*/
                ldr     r0, =__main_stack_end__
 80001e2:	4837      	ldr	r0, [pc, #220]	; (80002c0 <endfiniloop+0x4>)
                msr     MSP, r0
 80001e4:	f380 8808 	msr	MSP, r0
#endif

                /* PSP stack pointers initialization.*/
                ldr     r0, =__process_stack_end__
 80001e8:	4836      	ldr	r0, [pc, #216]	; (80002c4 <endfiniloop+0x8>)
                msr     PSP, r0
 80001ea:	f380 8809 	msr	PSP, r0

#if CRT0_VTOR_INIT == TRUE
                /* Initial VTOR position enforced.*/
                ldr     r0, =_vectors
 80001ee:	4836      	ldr	r0, [pc, #216]	; (80002c8 <endfiniloop+0xc>)
                ldr     r1, =SCB_VTOR
 80001f0:	4936      	ldr	r1, [pc, #216]	; (80002cc <endfiniloop+0x10>)
                str     r0, [r1]
 80001f2:	6008      	str	r0, [r1, #0]
#endif

#if CRT0_INIT_FPU == TRUE
                /* FPU FPCCR initialization.*/
                movw    r0, #CRT0_FPCCR_INIT & 0xFFFF
 80001f4:	f240 0000 	movw	r0, #0
                movt    r0, #CRT0_FPCCR_INIT >> 16
 80001f8:	f2cc 0000 	movt	r0, #49152	; 0xc000
                movw    r1, #SCB_FPCCR & 0xFFFF
 80001fc:	f64e 7134 	movw	r1, #61236	; 0xef34
                movt    r1, #SCB_FPCCR >> 16
 8000200:	f2ce 0100 	movt	r1, #57344	; 0xe000
                str     r0, [r1]
 8000204:	6008      	str	r0, [r1, #0]
                dsb
 8000206:	f3bf 8f4f 	dsb	sy
                isb
 800020a:	f3bf 8f6f 	isb	sy

                /* CPACR initialization.*/
                movw    r0, #CRT0_CPACR_INIT & 0xFFFF
 800020e:	f240 0000 	movw	r0, #0
                movt    r0, #CRT0_CPACR_INIT >> 16
 8000212:	f2c0 00f0 	movt	r0, #240	; 0xf0
                movw    r1, #SCB_CPACR & 0xFFFF
 8000216:	f64e 5188 	movw	r1, #60808	; 0xed88
                movt    r1, #SCB_CPACR >> 16
 800021a:	f2ce 0100 	movt	r1, #57344	; 0xe000
                str     r0, [r1]
 800021e:	6008      	str	r0, [r1, #0]
                dsb
 8000220:	f3bf 8f4f 	dsb	sy
                isb
 8000224:	f3bf 8f6f 	isb	sy

                /* FPU FPSCR initially cleared.*/
                mov     r0, #0
 8000228:	f04f 0000 	mov.w	r0, #0
                vmsr    FPSCR, r0
 800022c:	eee1 0a10 	vmsr	fpscr, r0

                /* FPU FPDSCR initially cleared.*/
                movw    r1, #SCB_FPDSCR & 0xFFFF
 8000230:	f64e 713c 	movw	r1, #61244	; 0xef3c
                movt    r1, #SCB_FPDSCR >> 16
 8000234:	f2ce 0100 	movt	r1, #57344	; 0xe000
                str     r0, [r1]
 8000238:	6008      	str	r0, [r1, #0]

                /* Enforcing FPCA bit in the CONTROL register.*/
                movs    r0, #CRT0_CONTROL_INIT | CONTROL_FPCA
 800023a:	2006      	movs	r0, #6
#else
                movs    r0, #CRT0_CONTROL_INIT
#endif

                /* CONTROL register initialization as configured.*/
                msr     CONTROL, r0
 800023c:	f380 8814 	msr	CONTROL, r0
                isb
 8000240:	f3bf 8f6f 	isb	sy

#if CRT0_INIT_CORE == TRUE
                /* Core initialization.*/
                bl      __cpu_init
 8000244:	f001 fcd4 	bl	8001bf0 <__cpu_init>
#endif

                /* Early initialization.*/
                bl      __early_init
 8000248:	f003 ff7a 	bl	8004140 <__early_init>

#if CRT0_INIT_STACKS == TRUE
                ldr     r0, =CRT0_STACKS_FILL_PATTERN
 800024c:	f04f 3055 	mov.w	r0, #1431655765	; 0x55555555
                /* Main Stack initialization. Note, it assumes that the
                   stack size is a multiple of 4 so the linker file must
                   ensure this.*/
                ldr     r1, =__main_stack_base__
 8000250:	491f      	ldr	r1, [pc, #124]	; (80002d0 <endfiniloop+0x14>)
                ldr     r2, =__main_stack_end__
 8000252:	4a1b      	ldr	r2, [pc, #108]	; (80002c0 <endfiniloop+0x4>)

08000254 <msloop>:
msloop:
                cmp     r1, r2
 8000254:	4291      	cmp	r1, r2
                itt     lo
 8000256:	bf3c      	itt	cc
                strlo   r0, [r1], #4
 8000258:	f841 0b04 	strcc.w	r0, [r1], #4
                blo     msloop
 800025c:	e7fa      	bcc.n	8000254 <msloop>

                /* Process Stack initialization. Note, it assumes that the
                   stack size is a multiple of 4 so the linker file must
                   ensure this.*/
                ldr     r1, =__process_stack_base__
 800025e:	491d      	ldr	r1, [pc, #116]	; (80002d4 <endfiniloop+0x18>)
                ldr     r2, =__process_stack_end__
 8000260:	4a18      	ldr	r2, [pc, #96]	; (80002c4 <endfiniloop+0x8>)

08000262 <psloop>:
psloop:
                cmp     r1, r2
 8000262:	4291      	cmp	r1, r2
                itt     lo
 8000264:	bf3c      	itt	cc
                strlo   r0, [r1], #4
 8000266:	f841 0b04 	strcc.w	r0, [r1], #4
                blo     psloop
 800026a:	e7fa      	bcc.n	8000262 <psloop>

#if CRT0_INIT_DATA == TRUE
                /* Data initialization. Note, it assumes that the DATA
                   size is a multiple of 4 so the linker file must ensure
                   this.*/
                ldr     r1, =__textdata_base__
 800026c:	491a      	ldr	r1, [pc, #104]	; (80002d8 <endfiniloop+0x1c>)
                ldr     r2, =__data_base__
 800026e:	4a1b      	ldr	r2, [pc, #108]	; (80002dc <endfiniloop+0x20>)
                ldr     r3, =__data_end__
 8000270:	4b1b      	ldr	r3, [pc, #108]	; (80002e0 <endfiniloop+0x24>)

08000272 <dloop>:
dloop:
                cmp     r2, r3
 8000272:	429a      	cmp	r2, r3
                ittt    lo
 8000274:	bf3e      	ittt	cc
                ldrlo   r0, [r1], #4
 8000276:	f851 0b04 	ldrcc.w	r0, [r1], #4
                strlo   r0, [r2], #4
 800027a:	f842 0b04 	strcc.w	r0, [r2], #4
                blo     dloop
 800027e:	e7f8      	bcc.n	8000272 <dloop>

#if CRT0_INIT_BSS == TRUE
                /* BSS initialization. Note, it assumes that the BSS
                   size is a multiple of 4 so the linker file must ensure
                   this.*/
                movs    r0, #0
 8000280:	2000      	movs	r0, #0
                ldr     r1, =__bss_base__
 8000282:	4918      	ldr	r1, [pc, #96]	; (80002e4 <endfiniloop+0x28>)
                ldr     r2, =__bss_end__
 8000284:	4a18      	ldr	r2, [pc, #96]	; (80002e8 <endfiniloop+0x2c>)

08000286 <bloop>:
bloop:
                cmp     r1, r2
 8000286:	4291      	cmp	r1, r2
                itt     lo
 8000288:	bf3c      	itt	cc
                strlo   r0, [r1], #4
 800028a:	f841 0b04 	strcc.w	r0, [r1], #4
                blo     bloop
 800028e:	e7fa      	bcc.n	8000286 <bloop>
#endif

#if CRT0_INIT_RAM_AREAS == TRUE
                /* RAM areas initialization.*/
                bl      __init_ram_areas
 8000290:	f001 fcc6 	bl	8001c20 <__init_ram_areas>
#endif

                /* Late initialization..*/
                bl      __late_init
 8000294:	f001 fcb4 	bl	8001c00 <__late_init>

#if CRT0_CALL_CONSTRUCTORS == TRUE
                /* Constructors invocation.*/
                ldr     r4, =__init_array_base__
 8000298:	4c14      	ldr	r4, [pc, #80]	; (80002ec <endfiniloop+0x30>)
                ldr     r5, =__init_array_end__
 800029a:	4d15      	ldr	r5, [pc, #84]	; (80002f0 <endfiniloop+0x34>)

0800029c <initloop>:
initloop:
                cmp     r4, r5
 800029c:	42ac      	cmp	r4, r5
                bge     endinitloop
 800029e:	da03      	bge.n	80002a8 <endinitloop>
                ldr     r1, [r4], #4
 80002a0:	f854 1b04 	ldr.w	r1, [r4], #4
                blx     r1
 80002a4:	4788      	blx	r1
                b       initloop
 80002a6:	e7f9      	b.n	800029c <initloop>

080002a8 <endinitloop>:
endinitloop:
#endif

                /* Main program invocation, r0 contains the returned value.*/
                bl      main
 80002a8:	f004 f832 	bl	8004310 <main>

#if CRT0_CALL_DESTRUCTORS == TRUE
                /* Destructors invocation.*/
                ldr     r4, =__fini_array_base__
 80002ac:	4c11      	ldr	r4, [pc, #68]	; (80002f4 <endfiniloop+0x38>)
                ldr     r5, =__fini_array_end__
 80002ae:	4d12      	ldr	r5, [pc, #72]	; (80002f8 <endfiniloop+0x3c>)

080002b0 <finiloop>:
finiloop:
                cmp     r4, r5
 80002b0:	42ac      	cmp	r4, r5
                bge     endfiniloop
 80002b2:	da03      	bge.n	80002bc <endfiniloop>
                ldr     r1, [r4], #4
 80002b4:	f854 1b04 	ldr.w	r1, [r4], #4
                blx     r1
 80002b8:	4788      	blx	r1
                b       finiloop
 80002ba:	e7f9      	b.n	80002b0 <finiloop>

080002bc <endfiniloop>:
endfiniloop:
#endif

                /* Branching to the defined exit handler.*/
                b       __default_exit
 80002bc:	f001 bca8 	b.w	8001c10 <__default_exit>
                ldr     r0, =__main_stack_end__
 80002c0:	20000400 	.word	0x20000400
                ldr     r0, =__process_stack_end__
 80002c4:	20000800 	.word	0x20000800
                ldr     r0, =_vectors
 80002c8:	08000000 	.word	0x08000000
                ldr     r1, =SCB_VTOR
 80002cc:	e000ed08 	.word	0xe000ed08
                ldr     r1, =__main_stack_base__
 80002d0:	20000000 	.word	0x20000000
                ldr     r1, =__process_stack_base__
 80002d4:	20000400 	.word	0x20000400
                ldr     r1, =__textdata_base__
 80002d8:	08005094 	.word	0x08005094
                ldr     r2, =__data_base__
 80002dc:	20000800 	.word	0x20000800
                ldr     r3, =__data_end__
 80002e0:	20000804 	.word	0x20000804
                ldr     r1, =__bss_base__
 80002e4:	20000808 	.word	0x20000808
                ldr     r2, =__bss_end__
 80002e8:	20002020 	.word	0x20002020
                ldr     r4, =__init_array_base__
 80002ec:	080001e0 	.word	0x080001e0
                ldr     r5, =__init_array_end__
 80002f0:	080001e0 	.word	0x080001e0
                ldr     r4, =__fini_array_base__
 80002f4:	080001e0 	.word	0x080001e0
                ldr     r5, =__fini_array_end__
 80002f8:	080001e0 	.word	0x080001e0

080002fc <Reset_Handler>:

        .align      2
        .thumb_func
        .weak       Reset_Handler
Reset_Handler:
         b          _crt0_entry
 80002fc:	e770      	b.n	80001e0 <_crt0_entry>

080002fe <BusFault_Handler>:
        .thumb_func
Vector3F8:
        .thumb_func
Vector3FC:
#endif
        bl          _unhandled_exception
 80002fe:	f000 f800 	bl	8000302 <_unhandled_exception>

08000302 <_unhandled_exception>:

        .thumb_func
        .weak       _unhandled_exception
_unhandled_exception:
.stay:
        b           .stay
 8000302:	e7fe      	b.n	8000302 <_unhandled_exception>

08000304 <__port_switch>:
 * Performs a context switch between two threads.
 *--------------------------------------------------------------------------*/
                .thumb_func
                .globl  __port_switch
__port_switch:
                push    {r4, r5, r6, r7, r8, r9, r10, r11, lr}
 8000304:	e92d 4ff0 	stmdb	sp!, {r4, r5, r6, r7, r8, r9, sl, fp, lr}
#if CORTEX_USE_FPU
                /* Saving FPU context.*/
                vpush   {s16-s31}
 8000308:	ed2d 8a10 	vpush	{s16-s31}
#if PORT_SWITCHED_REGIONS_NUMBER == 4
                push    {r4, r5, r6, r7, r8, r9, r10, r11}
#endif
#endif

                str     sp, [r1, #CONTEXT_OFFSET]
 800030c:	f8c1 d00c 	str.w	sp, [r1, #12]
#if (CORTEX_SIMPLIFIED_PRIORITY == FALSE) &&                                \
    ((CORTEX_MODEL == 3) || (CORTEX_MODEL == 4))
                /* Workaround for ARM errata 752419, only applied if
                   condition exists for it to be triggered.*/
                ldr     r3, [r0, #CONTEXT_OFFSET]
 8000310:	68c3      	ldr	r3, [r0, #12]
                mov     sp, r3
 8000312:	469d      	mov	sp, r3
#endif
#endif

#if CORTEX_USE_FPU
                /* Restoring FPU context.*/
                vpop    {s16-s31}
 8000314:	ecbd 8a10 	vpop	{s16-s31}
#endif
                pop     {r4, r5, r6, r7, r8, r9, r10, r11, pc}
 8000318:	e8bd 8ff0 	ldmia.w	sp!, {r4, r5, r6, r7, r8, r9, sl, fp, pc}

0800031c <__port_thread_start>:
__port_thread_start:
#if CH_DBG_ENABLE_STACK_CHECK && PORT_ENABLE_GUARD_PAGES
                bl      __port_set_region
#endif
#if CH_DBG_SYSTEM_STATE_CHECK
                bl      __dbg_check_unlock
 800031c:	f001 fcb8 	bl	8001c90 <__dbg_check_unlock>
                bl      __stats_stop_measure_crit_thd
#endif
#if CORTEX_SIMPLIFIED_PRIORITY
                cpsie   i
#else
                movs    r3, #0              /* CORTEX_BASEPRI_DISABLED */
 8000320:	2300      	movs	r3, #0
                msr     BASEPRI, r3
 8000322:	f383 8811 	msr	BASEPRI, r3
#endif
                mov     r0, r5
 8000326:	4628      	mov	r0, r5
                blx     r4
 8000328:	47a0      	blx	r4
                movs    r0, #0              /* MSG_OK */
 800032a:	2000      	movs	r0, #0
                bl      chThdExit
 800032c:	f003 fec0 	bl	80040b0 <chThdExit>

08000330 <.zombies>:
.zombies:       b       .zombies
 8000330:	e7fe      	b.n	8000330 <.zombies>

08000332 <__port_switch_from_isr>:
__port_switch_from_isr:
#if CH_DBG_STATISTICS
                bl      __stats_start_measure_crit_thd
#endif
#if CH_DBG_SYSTEM_STATE_CHECK
                bl      __dbg_check_lock
 8000332:	f001 fcc5 	bl	8001cc0 <__dbg_check_lock>
#endif
                bl      chSchDoPreemption
 8000336:	f002 ff23 	bl	8003180 <chSchDoPreemption>
#if CH_DBG_SYSTEM_STATE_CHECK
                bl      __dbg_check_unlock
 800033a:	f001 fca9 	bl	8001c90 <__dbg_check_unlock>

0800033e <__port_exit_from_isr>:
                movt    r3, #:upper16:SCB_ICSR
                mov     r2, ICSR_PENDSVSET
                str     r2, [r3, #0]
                cpsie   i
#else /* !CORTEX_SIMPLIFIED_PRIORITY */
                svc     #0
 800033e:	df00      	svc	0
#endif /* !CORTEX_SIMPLIFIED_PRIORITY */
.L1:            b       .L1
 8000340:	e7fe      	b.n	8000340 <__port_exit_from_isr+0x2>
	...

08000344 <memcpy>:
 8000344:	4684      	mov	ip, r0
 8000346:	ea41 0300 	orr.w	r3, r1, r0
 800034a:	f013 0303 	ands.w	r3, r3, #3
 800034e:	d16d      	bne.n	800042c <memcpy+0xe8>
 8000350:	3a40      	subs	r2, #64	; 0x40
 8000352:	d341      	bcc.n	80003d8 <memcpy+0x94>
 8000354:	f851 3b04 	ldr.w	r3, [r1], #4
 8000358:	f840 3b04 	str.w	r3, [r0], #4
 800035c:	f851 3b04 	ldr.w	r3, [r1], #4
 8000360:	f840 3b04 	str.w	r3, [r0], #4
 8000364:	f851 3b04 	ldr.w	r3, [r1], #4
 8000368:	f840 3b04 	str.w	r3, [r0], #4
 800036c:	f851 3b04 	ldr.w	r3, [r1], #4
 8000370:	f840 3b04 	str.w	r3, [r0], #4
 8000374:	f851 3b04 	ldr.w	r3, [r1], #4
 8000378:	f840 3b04 	str.w	r3, [r0], #4
 800037c:	f851 3b04 	ldr.w	r3, [r1], #4
 8000380:	f840 3b04 	str.w	r3, [r0], #4
 8000384:	f851 3b04 	ldr.w	r3, [r1], #4
 8000388:	f840 3b04 	str.w	r3, [r0], #4
 800038c:	f851 3b04 	ldr.w	r3, [r1], #4
 8000390:	f840 3b04 	str.w	r3, [r0], #4
 8000394:	f851 3b04 	ldr.w	r3, [r1], #4
 8000398:	f840 3b04 	str.w	r3, [r0], #4
 800039c:	f851 3b04 	ldr.w	r3, [r1], #4
 80003a0:	f840 3b04 	str.w	r3, [r0], #4
 80003a4:	f851 3b04 	ldr.w	r3, [r1], #4
 80003a8:	f840 3b04 	str.w	r3, [r0], #4
 80003ac:	f851 3b04 	ldr.w	r3, [r1], #4
 80003b0:	f840 3b04 	str.w	r3, [r0], #4
 80003b4:	f851 3b04 	ldr.w	r3, [r1], #4
 80003b8:	f840 3b04 	str.w	r3, [r0], #4
 80003bc:	f851 3b04 	ldr.w	r3, [r1], #4
 80003c0:	f840 3b04 	str.w	r3, [r0], #4
 80003c4:	f851 3b04 	ldr.w	r3, [r1], #4
 80003c8:	f840 3b04 	str.w	r3, [r0], #4
 80003cc:	f851 3b04 	ldr.w	r3, [r1], #4
 80003d0:	f840 3b04 	str.w	r3, [r0], #4
 80003d4:	3a40      	subs	r2, #64	; 0x40
 80003d6:	d2bd      	bcs.n	8000354 <memcpy+0x10>
 80003d8:	3230      	adds	r2, #48	; 0x30
 80003da:	d311      	bcc.n	8000400 <memcpy+0xbc>
 80003dc:	f851 3b04 	ldr.w	r3, [r1], #4
 80003e0:	f840 3b04 	str.w	r3, [r0], #4
 80003e4:	f851 3b04 	ldr.w	r3, [r1], #4
 80003e8:	f840 3b04 	str.w	r3, [r0], #4
 80003ec:	f851 3b04 	ldr.w	r3, [r1], #4
 80003f0:	f840 3b04 	str.w	r3, [r0], #4
 80003f4:	f851 3b04 	ldr.w	r3, [r1], #4
 80003f8:	f840 3b04 	str.w	r3, [r0], #4
 80003fc:	3a10      	subs	r2, #16
 80003fe:	d2ed      	bcs.n	80003dc <memcpy+0x98>
 8000400:	320c      	adds	r2, #12
 8000402:	d305      	bcc.n	8000410 <memcpy+0xcc>
 8000404:	f851 3b04 	ldr.w	r3, [r1], #4
 8000408:	f840 3b04 	str.w	r3, [r0], #4
 800040c:	3a04      	subs	r2, #4
 800040e:	d2f9      	bcs.n	8000404 <memcpy+0xc0>
 8000410:	3204      	adds	r2, #4
 8000412:	d008      	beq.n	8000426 <memcpy+0xe2>
 8000414:	07d2      	lsls	r2, r2, #31
 8000416:	bf1c      	itt	ne
 8000418:	f811 3b01 	ldrbne.w	r3, [r1], #1
 800041c:	f800 3b01 	strbne.w	r3, [r0], #1
 8000420:	d301      	bcc.n	8000426 <memcpy+0xe2>
 8000422:	880b      	ldrh	r3, [r1, #0]
 8000424:	8003      	strh	r3, [r0, #0]
 8000426:	4660      	mov	r0, ip
 8000428:	4770      	bx	lr
 800042a:	bf00      	nop
 800042c:	2a08      	cmp	r2, #8
 800042e:	d313      	bcc.n	8000458 <memcpy+0x114>
 8000430:	078b      	lsls	r3, r1, #30
 8000432:	d08d      	beq.n	8000350 <memcpy+0xc>
 8000434:	f010 0303 	ands.w	r3, r0, #3
 8000438:	d08a      	beq.n	8000350 <memcpy+0xc>
 800043a:	f1c3 0304 	rsb	r3, r3, #4
 800043e:	1ad2      	subs	r2, r2, r3
 8000440:	07db      	lsls	r3, r3, #31
 8000442:	bf1c      	itt	ne
 8000444:	f811 3b01 	ldrbne.w	r3, [r1], #1
 8000448:	f800 3b01 	strbne.w	r3, [r0], #1
 800044c:	d380      	bcc.n	8000350 <memcpy+0xc>
 800044e:	f831 3b02 	ldrh.w	r3, [r1], #2
 8000452:	f820 3b02 	strh.w	r3, [r0], #2
 8000456:	e77b      	b.n	8000350 <memcpy+0xc>
 8000458:	3a04      	subs	r2, #4
 800045a:	d3d9      	bcc.n	8000410 <memcpy+0xcc>
 800045c:	3a01      	subs	r2, #1
 800045e:	f811 3b01 	ldrb.w	r3, [r1], #1
 8000462:	f800 3b01 	strb.w	r3, [r0], #1
 8000466:	d2f9      	bcs.n	800045c <memcpy+0x118>
 8000468:	780b      	ldrb	r3, [r1, #0]
 800046a:	7003      	strb	r3, [r0, #0]
 800046c:	784b      	ldrb	r3, [r1, #1]
 800046e:	7043      	strb	r3, [r0, #1]
 8000470:	788b      	ldrb	r3, [r1, #2]
 8000472:	7083      	strb	r3, [r0, #2]
 8000474:	4660      	mov	r0, ip
 8000476:	4770      	bx	lr

08000478 <__aeabi_dmul>:
 8000478:	b570      	push	{r4, r5, r6, lr}
 800047a:	f04f 0cff 	mov.w	ip, #255	; 0xff
 800047e:	f44c 6ce0 	orr.w	ip, ip, #1792	; 0x700
 8000482:	ea1c 5411 	ands.w	r4, ip, r1, lsr #20
 8000486:	bf1d      	ittte	ne
 8000488:	ea1c 5513 	andsne.w	r5, ip, r3, lsr #20
 800048c:	ea94 0f0c 	teqne	r4, ip
 8000490:	ea95 0f0c 	teqne	r5, ip
 8000494:	f000 f8de 	bleq	8000654 <__aeabi_dmul+0x1dc>
 8000498:	442c      	add	r4, r5
 800049a:	ea81 0603 	eor.w	r6, r1, r3
 800049e:	ea21 514c 	bic.w	r1, r1, ip, lsl #21
 80004a2:	ea23 534c 	bic.w	r3, r3, ip, lsl #21
 80004a6:	ea50 3501 	orrs.w	r5, r0, r1, lsl #12
 80004aa:	bf18      	it	ne
 80004ac:	ea52 3503 	orrsne.w	r5, r2, r3, lsl #12
 80004b0:	f441 1180 	orr.w	r1, r1, #1048576	; 0x100000
 80004b4:	f443 1380 	orr.w	r3, r3, #1048576	; 0x100000
 80004b8:	d038      	beq.n	800052c <__aeabi_dmul+0xb4>
 80004ba:	fba0 ce02 	umull	ip, lr, r0, r2
 80004be:	f04f 0500 	mov.w	r5, #0
 80004c2:	fbe1 e502 	umlal	lr, r5, r1, r2
 80004c6:	f006 4200 	and.w	r2, r6, #2147483648	; 0x80000000
 80004ca:	fbe0 e503 	umlal	lr, r5, r0, r3
 80004ce:	f04f 0600 	mov.w	r6, #0
 80004d2:	fbe1 5603 	umlal	r5, r6, r1, r3
 80004d6:	f09c 0f00 	teq	ip, #0
 80004da:	bf18      	it	ne
 80004dc:	f04e 0e01 	orrne.w	lr, lr, #1
 80004e0:	f1a4 04ff 	sub.w	r4, r4, #255	; 0xff
 80004e4:	f5b6 7f00 	cmp.w	r6, #512	; 0x200
 80004e8:	f564 7440 	sbc.w	r4, r4, #768	; 0x300
 80004ec:	d204      	bcs.n	80004f8 <__aeabi_dmul+0x80>
 80004ee:	ea5f 0e4e 	movs.w	lr, lr, lsl #1
 80004f2:	416d      	adcs	r5, r5
 80004f4:	eb46 0606 	adc.w	r6, r6, r6
 80004f8:	ea42 21c6 	orr.w	r1, r2, r6, lsl #11
 80004fc:	ea41 5155 	orr.w	r1, r1, r5, lsr #21
 8000500:	ea4f 20c5 	mov.w	r0, r5, lsl #11
 8000504:	ea40 505e 	orr.w	r0, r0, lr, lsr #21
 8000508:	ea4f 2ece 	mov.w	lr, lr, lsl #11
 800050c:	f1b4 0cfd 	subs.w	ip, r4, #253	; 0xfd
 8000510:	bf88      	it	hi
 8000512:	f5bc 6fe0 	cmphi.w	ip, #1792	; 0x700
 8000516:	d81e      	bhi.n	8000556 <__aeabi_dmul+0xde>
 8000518:	f1be 4f00 	cmp.w	lr, #2147483648	; 0x80000000
 800051c:	bf08      	it	eq
 800051e:	ea5f 0e50 	movseq.w	lr, r0, lsr #1
 8000522:	f150 0000 	adcs.w	r0, r0, #0
 8000526:	eb41 5104 	adc.w	r1, r1, r4, lsl #20
 800052a:	bd70      	pop	{r4, r5, r6, pc}
 800052c:	f006 4600 	and.w	r6, r6, #2147483648	; 0x80000000
 8000530:	ea46 0101 	orr.w	r1, r6, r1
 8000534:	ea40 0002 	orr.w	r0, r0, r2
 8000538:	ea81 0103 	eor.w	r1, r1, r3
 800053c:	ebb4 045c 	subs.w	r4, r4, ip, lsr #1
 8000540:	bfc2      	ittt	gt
 8000542:	ebd4 050c 	rsbsgt	r5, r4, ip
 8000546:	ea41 5104 	orrgt.w	r1, r1, r4, lsl #20
 800054a:	bd70      	popgt	{r4, r5, r6, pc}
 800054c:	f441 1180 	orr.w	r1, r1, #1048576	; 0x100000
 8000550:	f04f 0e00 	mov.w	lr, #0
 8000554:	3c01      	subs	r4, #1
 8000556:	f300 80ab 	bgt.w	80006b0 <__aeabi_dmul+0x238>
 800055a:	f114 0f36 	cmn.w	r4, #54	; 0x36
 800055e:	bfde      	ittt	le
 8000560:	2000      	movle	r0, #0
 8000562:	f001 4100 	andle.w	r1, r1, #2147483648	; 0x80000000
 8000566:	bd70      	pople	{r4, r5, r6, pc}
 8000568:	f1c4 0400 	rsb	r4, r4, #0
 800056c:	3c20      	subs	r4, #32
 800056e:	da35      	bge.n	80005dc <__aeabi_dmul+0x164>
 8000570:	340c      	adds	r4, #12
 8000572:	dc1b      	bgt.n	80005ac <__aeabi_dmul+0x134>
 8000574:	f104 0414 	add.w	r4, r4, #20
 8000578:	f1c4 0520 	rsb	r5, r4, #32
 800057c:	fa00 f305 	lsl.w	r3, r0, r5
 8000580:	fa20 f004 	lsr.w	r0, r0, r4
 8000584:	fa01 f205 	lsl.w	r2, r1, r5
 8000588:	ea40 0002 	orr.w	r0, r0, r2
 800058c:	f001 4200 	and.w	r2, r1, #2147483648	; 0x80000000
 8000590:	f021 4100 	bic.w	r1, r1, #2147483648	; 0x80000000
 8000594:	eb10 70d3 	adds.w	r0, r0, r3, lsr #31
 8000598:	fa21 f604 	lsr.w	r6, r1, r4
 800059c:	eb42 0106 	adc.w	r1, r2, r6
 80005a0:	ea5e 0e43 	orrs.w	lr, lr, r3, lsl #1
 80005a4:	bf08      	it	eq
 80005a6:	ea20 70d3 	biceq.w	r0, r0, r3, lsr #31
 80005aa:	bd70      	pop	{r4, r5, r6, pc}
 80005ac:	f1c4 040c 	rsb	r4, r4, #12
 80005b0:	f1c4 0520 	rsb	r5, r4, #32
 80005b4:	fa00 f304 	lsl.w	r3, r0, r4
 80005b8:	fa20 f005 	lsr.w	r0, r0, r5
 80005bc:	fa01 f204 	lsl.w	r2, r1, r4
 80005c0:	ea40 0002 	orr.w	r0, r0, r2
 80005c4:	f001 4100 	and.w	r1, r1, #2147483648	; 0x80000000
 80005c8:	eb10 70d3 	adds.w	r0, r0, r3, lsr #31
 80005cc:	f141 0100 	adc.w	r1, r1, #0
 80005d0:	ea5e 0e43 	orrs.w	lr, lr, r3, lsl #1
 80005d4:	bf08      	it	eq
 80005d6:	ea20 70d3 	biceq.w	r0, r0, r3, lsr #31
 80005da:	bd70      	pop	{r4, r5, r6, pc}
 80005dc:	f1c4 0520 	rsb	r5, r4, #32
 80005e0:	fa00 f205 	lsl.w	r2, r0, r5
 80005e4:	ea4e 0e02 	orr.w	lr, lr, r2
 80005e8:	fa20 f304 	lsr.w	r3, r0, r4
 80005ec:	fa01 f205 	lsl.w	r2, r1, r5
 80005f0:	ea43 0302 	orr.w	r3, r3, r2
 80005f4:	fa21 f004 	lsr.w	r0, r1, r4
 80005f8:	f001 4100 	and.w	r1, r1, #2147483648	; 0x80000000
 80005fc:	fa21 f204 	lsr.w	r2, r1, r4
 8000600:	ea20 0002 	bic.w	r0, r0, r2
 8000604:	eb00 70d3 	add.w	r0, r0, r3, lsr #31
 8000608:	ea5e 0e43 	orrs.w	lr, lr, r3, lsl #1
 800060c:	bf08      	it	eq
 800060e:	ea20 70d3 	biceq.w	r0, r0, r3, lsr #31
 8000612:	bd70      	pop	{r4, r5, r6, pc}
 8000614:	f094 0f00 	teq	r4, #0
 8000618:	d10f      	bne.n	800063a <__aeabi_dmul+0x1c2>
 800061a:	f001 4600 	and.w	r6, r1, #2147483648	; 0x80000000
 800061e:	0040      	lsls	r0, r0, #1
 8000620:	eb41 0101 	adc.w	r1, r1, r1
 8000624:	f411 1f80 	tst.w	r1, #1048576	; 0x100000
 8000628:	bf08      	it	eq
 800062a:	3c01      	subeq	r4, #1
 800062c:	d0f7      	beq.n	800061e <__aeabi_dmul+0x1a6>
 800062e:	ea41 0106 	orr.w	r1, r1, r6
 8000632:	f095 0f00 	teq	r5, #0
 8000636:	bf18      	it	ne
 8000638:	4770      	bxne	lr
 800063a:	f003 4600 	and.w	r6, r3, #2147483648	; 0x80000000
 800063e:	0052      	lsls	r2, r2, #1
 8000640:	eb43 0303 	adc.w	r3, r3, r3
 8000644:	f413 1f80 	tst.w	r3, #1048576	; 0x100000
 8000648:	bf08      	it	eq
 800064a:	3d01      	subeq	r5, #1
 800064c:	d0f7      	beq.n	800063e <__aeabi_dmul+0x1c6>
 800064e:	ea43 0306 	orr.w	r3, r3, r6
 8000652:	4770      	bx	lr
 8000654:	ea94 0f0c 	teq	r4, ip
 8000658:	ea0c 5513 	and.w	r5, ip, r3, lsr #20
 800065c:	bf18      	it	ne
 800065e:	ea95 0f0c 	teqne	r5, ip
 8000662:	d00c      	beq.n	800067e <__aeabi_dmul+0x206>
 8000664:	ea50 0641 	orrs.w	r6, r0, r1, lsl #1
 8000668:	bf18      	it	ne
 800066a:	ea52 0643 	orrsne.w	r6, r2, r3, lsl #1
 800066e:	d1d1      	bne.n	8000614 <__aeabi_dmul+0x19c>
 8000670:	ea81 0103 	eor.w	r1, r1, r3
 8000674:	f001 4100 	and.w	r1, r1, #2147483648	; 0x80000000
 8000678:	f04f 0000 	mov.w	r0, #0
 800067c:	bd70      	pop	{r4, r5, r6, pc}
 800067e:	ea50 0641 	orrs.w	r6, r0, r1, lsl #1
 8000682:	bf06      	itte	eq
 8000684:	4610      	moveq	r0, r2
 8000686:	4619      	moveq	r1, r3
 8000688:	ea52 0643 	orrsne.w	r6, r2, r3, lsl #1
 800068c:	d019      	beq.n	80006c2 <__aeabi_dmul+0x24a>
 800068e:	ea94 0f0c 	teq	r4, ip
 8000692:	d102      	bne.n	800069a <__aeabi_dmul+0x222>
 8000694:	ea50 3601 	orrs.w	r6, r0, r1, lsl #12
 8000698:	d113      	bne.n	80006c2 <__aeabi_dmul+0x24a>
 800069a:	ea95 0f0c 	teq	r5, ip
 800069e:	d105      	bne.n	80006ac <__aeabi_dmul+0x234>
 80006a0:	ea52 3603 	orrs.w	r6, r2, r3, lsl #12
 80006a4:	bf1c      	itt	ne
 80006a6:	4610      	movne	r0, r2
 80006a8:	4619      	movne	r1, r3
 80006aa:	d10a      	bne.n	80006c2 <__aeabi_dmul+0x24a>
 80006ac:	ea81 0103 	eor.w	r1, r1, r3
 80006b0:	f001 4100 	and.w	r1, r1, #2147483648	; 0x80000000
 80006b4:	f041 41fe 	orr.w	r1, r1, #2130706432	; 0x7f000000
 80006b8:	f441 0170 	orr.w	r1, r1, #15728640	; 0xf00000
 80006bc:	f04f 0000 	mov.w	r0, #0
 80006c0:	bd70      	pop	{r4, r5, r6, pc}
 80006c2:	f041 41fe 	orr.w	r1, r1, #2130706432	; 0x7f000000
 80006c6:	f441 0178 	orr.w	r1, r1, #16252928	; 0xf80000
 80006ca:	bd70      	pop	{r4, r5, r6, pc}

080006cc <__aeabi_drsub>:
 80006cc:	f081 4100 	eor.w	r1, r1, #2147483648	; 0x80000000
 80006d0:	e002      	b.n	80006d8 <__adddf3>
 80006d2:	bf00      	nop

080006d4 <__aeabi_dsub>:
 80006d4:	f083 4300 	eor.w	r3, r3, #2147483648	; 0x80000000

080006d8 <__adddf3>:
 80006d8:	b530      	push	{r4, r5, lr}
 80006da:	ea4f 0441 	mov.w	r4, r1, lsl #1
 80006de:	ea4f 0543 	mov.w	r5, r3, lsl #1
 80006e2:	ea94 0f05 	teq	r4, r5
 80006e6:	bf08      	it	eq
 80006e8:	ea90 0f02 	teqeq	r0, r2
 80006ec:	bf1f      	itttt	ne
 80006ee:	ea54 0c00 	orrsne.w	ip, r4, r0
 80006f2:	ea55 0c02 	orrsne.w	ip, r5, r2
 80006f6:	ea7f 5c64 	mvnsne.w	ip, r4, asr #21
 80006fa:	ea7f 5c65 	mvnsne.w	ip, r5, asr #21
 80006fe:	f000 80e2 	beq.w	80008c6 <__adddf3+0x1ee>
 8000702:	ea4f 5454 	mov.w	r4, r4, lsr #21
 8000706:	ebd4 5555 	rsbs	r5, r4, r5, lsr #21
 800070a:	bfb8      	it	lt
 800070c:	426d      	neglt	r5, r5
 800070e:	dd0c      	ble.n	800072a <__adddf3+0x52>
 8000710:	442c      	add	r4, r5
 8000712:	ea80 0202 	eor.w	r2, r0, r2
 8000716:	ea81 0303 	eor.w	r3, r1, r3
 800071a:	ea82 0000 	eor.w	r0, r2, r0
 800071e:	ea83 0101 	eor.w	r1, r3, r1
 8000722:	ea80 0202 	eor.w	r2, r0, r2
 8000726:	ea81 0303 	eor.w	r3, r1, r3
 800072a:	2d36      	cmp	r5, #54	; 0x36
 800072c:	bf88      	it	hi
 800072e:	bd30      	pophi	{r4, r5, pc}
 8000730:	f011 4f00 	tst.w	r1, #2147483648	; 0x80000000
 8000734:	ea4f 3101 	mov.w	r1, r1, lsl #12
 8000738:	f44f 1c80 	mov.w	ip, #1048576	; 0x100000
 800073c:	ea4c 3111 	orr.w	r1, ip, r1, lsr #12
 8000740:	d002      	beq.n	8000748 <__adddf3+0x70>
 8000742:	4240      	negs	r0, r0
 8000744:	eb61 0141 	sbc.w	r1, r1, r1, lsl #1
 8000748:	f013 4f00 	tst.w	r3, #2147483648	; 0x80000000
 800074c:	ea4f 3303 	mov.w	r3, r3, lsl #12
 8000750:	ea4c 3313 	orr.w	r3, ip, r3, lsr #12
 8000754:	d002      	beq.n	800075c <__adddf3+0x84>
 8000756:	4252      	negs	r2, r2
 8000758:	eb63 0343 	sbc.w	r3, r3, r3, lsl #1
 800075c:	ea94 0f05 	teq	r4, r5
 8000760:	f000 80a7 	beq.w	80008b2 <__adddf3+0x1da>
 8000764:	f1a4 0401 	sub.w	r4, r4, #1
 8000768:	f1d5 0e20 	rsbs	lr, r5, #32
 800076c:	db0d      	blt.n	800078a <__adddf3+0xb2>
 800076e:	fa02 fc0e 	lsl.w	ip, r2, lr
 8000772:	fa22 f205 	lsr.w	r2, r2, r5
 8000776:	1880      	adds	r0, r0, r2
 8000778:	f141 0100 	adc.w	r1, r1, #0
 800077c:	fa03 f20e 	lsl.w	r2, r3, lr
 8000780:	1880      	adds	r0, r0, r2
 8000782:	fa43 f305 	asr.w	r3, r3, r5
 8000786:	4159      	adcs	r1, r3
 8000788:	e00e      	b.n	80007a8 <__adddf3+0xd0>
 800078a:	f1a5 0520 	sub.w	r5, r5, #32
 800078e:	f10e 0e20 	add.w	lr, lr, #32
 8000792:	2a01      	cmp	r2, #1
 8000794:	fa03 fc0e 	lsl.w	ip, r3, lr
 8000798:	bf28      	it	cs
 800079a:	f04c 0c02 	orrcs.w	ip, ip, #2
 800079e:	fa43 f305 	asr.w	r3, r3, r5
 80007a2:	18c0      	adds	r0, r0, r3
 80007a4:	eb51 71e3 	adcs.w	r1, r1, r3, asr #31
 80007a8:	f001 4500 	and.w	r5, r1, #2147483648	; 0x80000000
 80007ac:	d507      	bpl.n	80007be <__adddf3+0xe6>
 80007ae:	f04f 0e00 	mov.w	lr, #0
 80007b2:	f1dc 0c00 	rsbs	ip, ip, #0
 80007b6:	eb7e 0000 	sbcs.w	r0, lr, r0
 80007ba:	eb6e 0101 	sbc.w	r1, lr, r1
 80007be:	f5b1 1f80 	cmp.w	r1, #1048576	; 0x100000
 80007c2:	d31b      	bcc.n	80007fc <__adddf3+0x124>
 80007c4:	f5b1 1f00 	cmp.w	r1, #2097152	; 0x200000
 80007c8:	d30c      	bcc.n	80007e4 <__adddf3+0x10c>
 80007ca:	0849      	lsrs	r1, r1, #1
 80007cc:	ea5f 0030 	movs.w	r0, r0, rrx
 80007d0:	ea4f 0c3c 	mov.w	ip, ip, rrx
 80007d4:	f104 0401 	add.w	r4, r4, #1
 80007d8:	ea4f 5244 	mov.w	r2, r4, lsl #21
 80007dc:	f512 0f80 	cmn.w	r2, #4194304	; 0x400000
 80007e0:	f080 809a 	bcs.w	8000918 <__adddf3+0x240>
 80007e4:	f1bc 4f00 	cmp.w	ip, #2147483648	; 0x80000000
 80007e8:	bf08      	it	eq
 80007ea:	ea5f 0c50 	movseq.w	ip, r0, lsr #1
 80007ee:	f150 0000 	adcs.w	r0, r0, #0
 80007f2:	eb41 5104 	adc.w	r1, r1, r4, lsl #20
 80007f6:	ea41 0105 	orr.w	r1, r1, r5
 80007fa:	bd30      	pop	{r4, r5, pc}
 80007fc:	ea5f 0c4c 	movs.w	ip, ip, lsl #1
 8000800:	4140      	adcs	r0, r0
 8000802:	eb41 0101 	adc.w	r1, r1, r1
 8000806:	3c01      	subs	r4, #1
 8000808:	bf28      	it	cs
 800080a:	f5b1 1f80 	cmpcs.w	r1, #1048576	; 0x100000
 800080e:	d2e9      	bcs.n	80007e4 <__adddf3+0x10c>
 8000810:	f091 0f00 	teq	r1, #0
 8000814:	bf04      	itt	eq
 8000816:	4601      	moveq	r1, r0
 8000818:	2000      	moveq	r0, #0
 800081a:	fab1 f381 	clz	r3, r1
 800081e:	bf08      	it	eq
 8000820:	3320      	addeq	r3, #32
 8000822:	f1a3 030b 	sub.w	r3, r3, #11
 8000826:	f1b3 0220 	subs.w	r2, r3, #32
 800082a:	da0c      	bge.n	8000846 <__adddf3+0x16e>
 800082c:	320c      	adds	r2, #12
 800082e:	dd08      	ble.n	8000842 <__adddf3+0x16a>
 8000830:	f102 0c14 	add.w	ip, r2, #20
 8000834:	f1c2 020c 	rsb	r2, r2, #12
 8000838:	fa01 f00c 	lsl.w	r0, r1, ip
 800083c:	fa21 f102 	lsr.w	r1, r1, r2
 8000840:	e00c      	b.n	800085c <__adddf3+0x184>
 8000842:	f102 0214 	add.w	r2, r2, #20
 8000846:	bfd8      	it	le
 8000848:	f1c2 0c20 	rsble	ip, r2, #32
 800084c:	fa01 f102 	lsl.w	r1, r1, r2
 8000850:	fa20 fc0c 	lsr.w	ip, r0, ip
 8000854:	bfdc      	itt	le
 8000856:	ea41 010c 	orrle.w	r1, r1, ip
 800085a:	4090      	lslle	r0, r2
 800085c:	1ae4      	subs	r4, r4, r3
 800085e:	bfa2      	ittt	ge
 8000860:	eb01 5104 	addge.w	r1, r1, r4, lsl #20
 8000864:	4329      	orrge	r1, r5
 8000866:	bd30      	popge	{r4, r5, pc}
 8000868:	ea6f 0404 	mvn.w	r4, r4
 800086c:	3c1f      	subs	r4, #31
 800086e:	da1c      	bge.n	80008aa <__adddf3+0x1d2>
 8000870:	340c      	adds	r4, #12
 8000872:	dc0e      	bgt.n	8000892 <__adddf3+0x1ba>
 8000874:	f104 0414 	add.w	r4, r4, #20
 8000878:	f1c4 0220 	rsb	r2, r4, #32
 800087c:	fa20 f004 	lsr.w	r0, r0, r4
 8000880:	fa01 f302 	lsl.w	r3, r1, r2
 8000884:	ea40 0003 	orr.w	r0, r0, r3
 8000888:	fa21 f304 	lsr.w	r3, r1, r4
 800088c:	ea45 0103 	orr.w	r1, r5, r3
 8000890:	bd30      	pop	{r4, r5, pc}
 8000892:	f1c4 040c 	rsb	r4, r4, #12
 8000896:	f1c4 0220 	rsb	r2, r4, #32
 800089a:	fa20 f002 	lsr.w	r0, r0, r2
 800089e:	fa01 f304 	lsl.w	r3, r1, r4
 80008a2:	ea40 0003 	orr.w	r0, r0, r3
 80008a6:	4629      	mov	r1, r5
 80008a8:	bd30      	pop	{r4, r5, pc}
 80008aa:	fa21 f004 	lsr.w	r0, r1, r4
 80008ae:	4629      	mov	r1, r5
 80008b0:	bd30      	pop	{r4, r5, pc}
 80008b2:	f094 0f00 	teq	r4, #0
 80008b6:	f483 1380 	eor.w	r3, r3, #1048576	; 0x100000
 80008ba:	bf06      	itte	eq
 80008bc:	f481 1180 	eoreq.w	r1, r1, #1048576	; 0x100000
 80008c0:	3401      	addeq	r4, #1
 80008c2:	3d01      	subne	r5, #1
 80008c4:	e74e      	b.n	8000764 <__adddf3+0x8c>
 80008c6:	ea7f 5c64 	mvns.w	ip, r4, asr #21
 80008ca:	bf18      	it	ne
 80008cc:	ea7f 5c65 	mvnsne.w	ip, r5, asr #21
 80008d0:	d029      	beq.n	8000926 <__adddf3+0x24e>
 80008d2:	ea94 0f05 	teq	r4, r5
 80008d6:	bf08      	it	eq
 80008d8:	ea90 0f02 	teqeq	r0, r2
 80008dc:	d005      	beq.n	80008ea <__adddf3+0x212>
 80008de:	ea54 0c00 	orrs.w	ip, r4, r0
 80008e2:	bf04      	itt	eq
 80008e4:	4619      	moveq	r1, r3
 80008e6:	4610      	moveq	r0, r2
 80008e8:	bd30      	pop	{r4, r5, pc}
 80008ea:	ea91 0f03 	teq	r1, r3
 80008ee:	bf1e      	ittt	ne
 80008f0:	2100      	movne	r1, #0
 80008f2:	2000      	movne	r0, #0
 80008f4:	bd30      	popne	{r4, r5, pc}
 80008f6:	ea5f 5c54 	movs.w	ip, r4, lsr #21
 80008fa:	d105      	bne.n	8000908 <__adddf3+0x230>
 80008fc:	0040      	lsls	r0, r0, #1
 80008fe:	4149      	adcs	r1, r1
 8000900:	bf28      	it	cs
 8000902:	f041 4100 	orrcs.w	r1, r1, #2147483648	; 0x80000000
 8000906:	bd30      	pop	{r4, r5, pc}
 8000908:	f514 0480 	adds.w	r4, r4, #4194304	; 0x400000
 800090c:	bf3c      	itt	cc
 800090e:	f501 1180 	addcc.w	r1, r1, #1048576	; 0x100000
 8000912:	bd30      	popcc	{r4, r5, pc}
 8000914:	f001 4500 	and.w	r5, r1, #2147483648	; 0x80000000
 8000918:	f045 41fe 	orr.w	r1, r5, #2130706432	; 0x7f000000
 800091c:	f441 0170 	orr.w	r1, r1, #15728640	; 0xf00000
 8000920:	f04f 0000 	mov.w	r0, #0
 8000924:	bd30      	pop	{r4, r5, pc}
 8000926:	ea7f 5c64 	mvns.w	ip, r4, asr #21
 800092a:	bf1a      	itte	ne
 800092c:	4619      	movne	r1, r3
 800092e:	4610      	movne	r0, r2
 8000930:	ea7f 5c65 	mvnseq.w	ip, r5, asr #21
 8000934:	bf1c      	itt	ne
 8000936:	460b      	movne	r3, r1
 8000938:	4602      	movne	r2, r0
 800093a:	ea50 3401 	orrs.w	r4, r0, r1, lsl #12
 800093e:	bf06      	itte	eq
 8000940:	ea52 3503 	orrseq.w	r5, r2, r3, lsl #12
 8000944:	ea91 0f03 	teqeq	r1, r3
 8000948:	f441 2100 	orrne.w	r1, r1, #524288	; 0x80000
 800094c:	bd30      	pop	{r4, r5, pc}
 800094e:	bf00      	nop

08000950 <__aeabi_ui2d>:
 8000950:	f090 0f00 	teq	r0, #0
 8000954:	bf04      	itt	eq
 8000956:	2100      	moveq	r1, #0
 8000958:	4770      	bxeq	lr
 800095a:	b530      	push	{r4, r5, lr}
 800095c:	f44f 6480 	mov.w	r4, #1024	; 0x400
 8000960:	f104 0432 	add.w	r4, r4, #50	; 0x32
 8000964:	f04f 0500 	mov.w	r5, #0
 8000968:	f04f 0100 	mov.w	r1, #0
 800096c:	e750      	b.n	8000810 <__adddf3+0x138>
 800096e:	bf00      	nop

08000970 <__aeabi_i2d>:
 8000970:	f090 0f00 	teq	r0, #0
 8000974:	bf04      	itt	eq
 8000976:	2100      	moveq	r1, #0
 8000978:	4770      	bxeq	lr
 800097a:	b530      	push	{r4, r5, lr}
 800097c:	f44f 6480 	mov.w	r4, #1024	; 0x400
 8000980:	f104 0432 	add.w	r4, r4, #50	; 0x32
 8000984:	f010 4500 	ands.w	r5, r0, #2147483648	; 0x80000000
 8000988:	bf48      	it	mi
 800098a:	4240      	negmi	r0, r0
 800098c:	f04f 0100 	mov.w	r1, #0
 8000990:	e73e      	b.n	8000810 <__adddf3+0x138>
 8000992:	bf00      	nop

08000994 <__aeabi_f2d>:
 8000994:	0042      	lsls	r2, r0, #1
 8000996:	ea4f 01e2 	mov.w	r1, r2, asr #3
 800099a:	ea4f 0131 	mov.w	r1, r1, rrx
 800099e:	ea4f 7002 	mov.w	r0, r2, lsl #28
 80009a2:	bf1f      	itttt	ne
 80009a4:	f012 437f 	andsne.w	r3, r2, #4278190080	; 0xff000000
 80009a8:	f093 4f7f 	teqne	r3, #4278190080	; 0xff000000
 80009ac:	f081 5160 	eorne.w	r1, r1, #939524096	; 0x38000000
 80009b0:	4770      	bxne	lr
 80009b2:	f032 427f 	bics.w	r2, r2, #4278190080	; 0xff000000
 80009b6:	bf08      	it	eq
 80009b8:	4770      	bxeq	lr
 80009ba:	f093 4f7f 	teq	r3, #4278190080	; 0xff000000
 80009be:	bf04      	itt	eq
 80009c0:	f441 2100 	orreq.w	r1, r1, #524288	; 0x80000
 80009c4:	4770      	bxeq	lr
 80009c6:	b530      	push	{r4, r5, lr}
 80009c8:	f44f 7460 	mov.w	r4, #896	; 0x380
 80009cc:	f001 4500 	and.w	r5, r1, #2147483648	; 0x80000000
 80009d0:	f021 4100 	bic.w	r1, r1, #2147483648	; 0x80000000
 80009d4:	e71c      	b.n	8000810 <__adddf3+0x138>
 80009d6:	bf00      	nop

080009d8 <__aeabi_ul2d>:
 80009d8:	ea50 0201 	orrs.w	r2, r0, r1
 80009dc:	bf08      	it	eq
 80009de:	4770      	bxeq	lr
 80009e0:	b530      	push	{r4, r5, lr}
 80009e2:	f04f 0500 	mov.w	r5, #0
 80009e6:	e00a      	b.n	80009fe <__aeabi_l2d+0x16>

080009e8 <__aeabi_l2d>:
 80009e8:	ea50 0201 	orrs.w	r2, r0, r1
 80009ec:	bf08      	it	eq
 80009ee:	4770      	bxeq	lr
 80009f0:	b530      	push	{r4, r5, lr}
 80009f2:	f011 4500 	ands.w	r5, r1, #2147483648	; 0x80000000
 80009f6:	d502      	bpl.n	80009fe <__aeabi_l2d+0x16>
 80009f8:	4240      	negs	r0, r0
 80009fa:	eb61 0141 	sbc.w	r1, r1, r1, lsl #1
 80009fe:	f44f 6480 	mov.w	r4, #1024	; 0x400
 8000a02:	f104 0432 	add.w	r4, r4, #50	; 0x32
 8000a06:	ea5f 5c91 	movs.w	ip, r1, lsr #22
 8000a0a:	f43f aed8 	beq.w	80007be <__adddf3+0xe6>
 8000a0e:	f04f 0203 	mov.w	r2, #3
 8000a12:	ea5f 0cdc 	movs.w	ip, ip, lsr #3
 8000a16:	bf18      	it	ne
 8000a18:	3203      	addne	r2, #3
 8000a1a:	ea5f 0cdc 	movs.w	ip, ip, lsr #3
 8000a1e:	bf18      	it	ne
 8000a20:	3203      	addne	r2, #3
 8000a22:	eb02 02dc 	add.w	r2, r2, ip, lsr #3
 8000a26:	f1c2 0320 	rsb	r3, r2, #32
 8000a2a:	fa00 fc03 	lsl.w	ip, r0, r3
 8000a2e:	fa20 f002 	lsr.w	r0, r0, r2
 8000a32:	fa01 fe03 	lsl.w	lr, r1, r3
 8000a36:	ea40 000e 	orr.w	r0, r0, lr
 8000a3a:	fa21 f102 	lsr.w	r1, r1, r2
 8000a3e:	4414      	add	r4, r2
 8000a40:	e6bd      	b.n	80007be <__adddf3+0xe6>
 8000a42:	bf00      	nop

08000a44 <__aeabi_d2iz>:
 8000a44:	ea4f 0241 	mov.w	r2, r1, lsl #1
 8000a48:	f512 1200 	adds.w	r2, r2, #2097152	; 0x200000
 8000a4c:	d215      	bcs.n	8000a7a <__aeabi_d2iz+0x36>
 8000a4e:	d511      	bpl.n	8000a74 <__aeabi_d2iz+0x30>
 8000a50:	f46f 7378 	mvn.w	r3, #992	; 0x3e0
 8000a54:	ebb3 5262 	subs.w	r2, r3, r2, asr #21
 8000a58:	d912      	bls.n	8000a80 <__aeabi_d2iz+0x3c>
 8000a5a:	ea4f 23c1 	mov.w	r3, r1, lsl #11
 8000a5e:	f043 4300 	orr.w	r3, r3, #2147483648	; 0x80000000
 8000a62:	ea43 5350 	orr.w	r3, r3, r0, lsr #21
 8000a66:	f011 4f00 	tst.w	r1, #2147483648	; 0x80000000
 8000a6a:	fa23 f002 	lsr.w	r0, r3, r2
 8000a6e:	bf18      	it	ne
 8000a70:	4240      	negne	r0, r0
 8000a72:	4770      	bx	lr
 8000a74:	f04f 0000 	mov.w	r0, #0
 8000a78:	4770      	bx	lr
 8000a7a:	ea50 3001 	orrs.w	r0, r0, r1, lsl #12
 8000a7e:	d105      	bne.n	8000a8c <__aeabi_d2iz+0x48>
 8000a80:	f011 4000 	ands.w	r0, r1, #2147483648	; 0x80000000
 8000a84:	bf08      	it	eq
 8000a86:	f06f 4000 	mvneq.w	r0, #2147483648	; 0x80000000
 8000a8a:	4770      	bx	lr
 8000a8c:	f04f 0000 	mov.w	r0, #0
 8000a90:	4770      	bx	lr
 8000a92:	bf00      	nop

08000a94 <__aeabi_d2f>:
 8000a94:	ea4f 0241 	mov.w	r2, r1, lsl #1
 8000a98:	f1b2 43e0 	subs.w	r3, r2, #1879048192	; 0x70000000
 8000a9c:	bf24      	itt	cs
 8000a9e:	f5b3 1c00 	subscs.w	ip, r3, #2097152	; 0x200000
 8000aa2:	f1dc 5cfe 	rsbscs	ip, ip, #532676608	; 0x1fc00000
 8000aa6:	d90d      	bls.n	8000ac4 <__aeabi_d2f+0x30>
 8000aa8:	f001 4c00 	and.w	ip, r1, #2147483648	; 0x80000000
 8000aac:	ea4f 02c0 	mov.w	r2, r0, lsl #3
 8000ab0:	ea4c 7050 	orr.w	r0, ip, r0, lsr #29
 8000ab4:	f1b2 4f00 	cmp.w	r2, #2147483648	; 0x80000000
 8000ab8:	eb40 0083 	adc.w	r0, r0, r3, lsl #2
 8000abc:	bf08      	it	eq
 8000abe:	f020 0001 	biceq.w	r0, r0, #1
 8000ac2:	4770      	bx	lr
 8000ac4:	f011 4f80 	tst.w	r1, #1073741824	; 0x40000000
 8000ac8:	d121      	bne.n	8000b0e <__aeabi_d2f+0x7a>
 8000aca:	f113 7238 	adds.w	r2, r3, #48234496	; 0x2e00000
 8000ace:	bfbc      	itt	lt
 8000ad0:	f001 4000 	andlt.w	r0, r1, #2147483648	; 0x80000000
 8000ad4:	4770      	bxlt	lr
 8000ad6:	f441 1180 	orr.w	r1, r1, #1048576	; 0x100000
 8000ada:	ea4f 5252 	mov.w	r2, r2, lsr #21
 8000ade:	f1c2 0218 	rsb	r2, r2, #24
 8000ae2:	f1c2 0c20 	rsb	ip, r2, #32
 8000ae6:	fa10 f30c 	lsls.w	r3, r0, ip
 8000aea:	fa20 f002 	lsr.w	r0, r0, r2
 8000aee:	bf18      	it	ne
 8000af0:	f040 0001 	orrne.w	r0, r0, #1
 8000af4:	ea4f 23c1 	mov.w	r3, r1, lsl #11
 8000af8:	ea4f 23d3 	mov.w	r3, r3, lsr #11
 8000afc:	fa03 fc0c 	lsl.w	ip, r3, ip
 8000b00:	ea40 000c 	orr.w	r0, r0, ip
 8000b04:	fa23 f302 	lsr.w	r3, r3, r2
 8000b08:	ea4f 0343 	mov.w	r3, r3, lsl #1
 8000b0c:	e7cc      	b.n	8000aa8 <__aeabi_d2f+0x14>
 8000b0e:	ea7f 5362 	mvns.w	r3, r2, asr #21
 8000b12:	d107      	bne.n	8000b24 <__aeabi_d2f+0x90>
 8000b14:	ea50 3301 	orrs.w	r3, r0, r1, lsl #12
 8000b18:	bf1e      	ittt	ne
 8000b1a:	f04f 40fe 	movne.w	r0, #2130706432	; 0x7f000000
 8000b1e:	f440 0040 	orrne.w	r0, r0, #12582912	; 0xc00000
 8000b22:	4770      	bxne	lr
 8000b24:	f001 4000 	and.w	r0, r1, #2147483648	; 0x80000000
 8000b28:	f040 40fe 	orr.w	r0, r0, #2130706432	; 0x7f000000
 8000b2c:	f440 0000 	orr.w	r0, r0, #8388608	; 0x800000
 8000b30:	4770      	bx	lr
 8000b32:	bf00      	nop

08000b34 <__aeabi_uldivmod>:
 8000b34:	b953      	cbnz	r3, 8000b4c <__aeabi_uldivmod+0x18>
 8000b36:	b94a      	cbnz	r2, 8000b4c <__aeabi_uldivmod+0x18>
 8000b38:	2900      	cmp	r1, #0
 8000b3a:	bf08      	it	eq
 8000b3c:	2800      	cmpeq	r0, #0
 8000b3e:	bf1c      	itt	ne
 8000b40:	f04f 31ff 	movne.w	r1, #4294967295
 8000b44:	f04f 30ff 	movne.w	r0, #4294967295
 8000b48:	f000 b80c 	b.w	8000b64 <__aeabi_idiv0>
 8000b4c:	f1ad 0c08 	sub.w	ip, sp, #8
 8000b50:	e96d ce04 	strd	ip, lr, [sp, #-16]!
 8000b54:	f003 ff34 	bl	80049c0 <__udivmoddi4>
 8000b58:	f8dd e004 	ldr.w	lr, [sp, #4]
 8000b5c:	e9dd 2302 	ldrd	r2, r3, [sp, #8]
 8000b60:	b004      	add	sp, #16
 8000b62:	4770      	bx	lr

08000b64 <__aeabi_idiv0>:
 8000b64:	4770      	bx	lr
 8000b66:	bf00      	nop

08000b68 <__aeabi_d2uiz>:
 8000b68:	004a      	lsls	r2, r1, #1
 8000b6a:	d211      	bcs.n	8000b90 <__aeabi_d2uiz+0x28>
 8000b6c:	f512 1200 	adds.w	r2, r2, #2097152	; 0x200000
 8000b70:	d211      	bcs.n	8000b96 <__aeabi_d2uiz+0x2e>
 8000b72:	d50d      	bpl.n	8000b90 <__aeabi_d2uiz+0x28>
 8000b74:	f46f 7378 	mvn.w	r3, #992	; 0x3e0
 8000b78:	ebb3 5262 	subs.w	r2, r3, r2, asr #21
 8000b7c:	d40e      	bmi.n	8000b9c <__aeabi_d2uiz+0x34>
 8000b7e:	ea4f 23c1 	mov.w	r3, r1, lsl #11
 8000b82:	f043 4300 	orr.w	r3, r3, #2147483648	; 0x80000000
 8000b86:	ea43 5350 	orr.w	r3, r3, r0, lsr #21
 8000b8a:	fa23 f002 	lsr.w	r0, r3, r2
 8000b8e:	4770      	bx	lr
 8000b90:	f04f 0000 	mov.w	r0, #0
 8000b94:	4770      	bx	lr
 8000b96:	ea50 3001 	orrs.w	r0, r0, r1, lsl #12
 8000b9a:	d102      	bne.n	8000ba2 <__aeabi_d2uiz+0x3a>
 8000b9c:	f04f 30ff 	mov.w	r0, #4294967295
 8000ba0:	4770      	bx	lr
 8000ba2:	f04f 0000 	mov.w	r0, #0
 8000ba6:	4770      	bx	lr
	...

08000bb0 <notify1>:

#if STM32_SERIAL_USE_USART1 || defined(__DOXYGEN__)
static void notify1(io_queue_t *qp) {

  (void)qp;
  USART1->CR1 |= USART_CR1_TXEIE | USART_CR1_TCIE;
 8000bb0:	4a02      	ldr	r2, [pc, #8]	; (8000bbc <notify1+0xc>)
 8000bb2:	68d3      	ldr	r3, [r2, #12]
 8000bb4:	f043 03c0 	orr.w	r3, r3, #192	; 0xc0
 8000bb8:	60d3      	str	r3, [r2, #12]
}
 8000bba:	4770      	bx	lr
 8000bbc:	40011000 	.word	0x40011000

08000bc0 <notify2>:

#if STM32_SERIAL_USE_USART2 || defined(__DOXYGEN__)
static void notify2(io_queue_t *qp) {

  (void)qp;
  USART2->CR1 |= USART_CR1_TXEIE | USART_CR1_TCIE;
 8000bc0:	4a02      	ldr	r2, [pc, #8]	; (8000bcc <notify2+0xc>)
 8000bc2:	68d3      	ldr	r3, [r2, #12]
 8000bc4:	f043 03c0 	orr.w	r3, r3, #192	; 0xc0
 8000bc8:	60d3      	str	r3, [r2, #12]
}
 8000bca:	4770      	bx	lr
 8000bcc:	40004400 	.word	0x40004400

08000bd0 <chSysHalt>:
  \details Disables IRQ interrupts by setting the I-bit in the CPSR.
           Can only be executed in Privileged modes.
 */
__STATIC_FORCEINLINE void __disable_irq(void)
{
  __ASM volatile ("cpsid i" : : : "memory");
 8000bd0:	b672      	cpsid	i

  /* Logging the event.*/
  __trace_halt(reason);

  /* Pointing to the passed message.*/
  currcore->dbg.panic_msg = reason;
 8000bd2:	4903      	ldr	r1, [pc, #12]	; (8000be0 <chSysHalt+0x10>)
     via some inter-core messaging or other means.*/
  PORT_SYSTEM_HALT_HOOK();
#endif

  /* Entering the halted state.*/
  ch_system.state = ch_sys_halted;
 8000bd4:	4b03      	ldr	r3, [pc, #12]	; (8000be4 <chSysHalt+0x14>)
  currcore->dbg.panic_msg = reason;
 8000bd6:	f8c1 0084 	str.w	r0, [r1, #132]	; 0x84
  ch_system.state = ch_sys_halted;
 8000bda:	2203      	movs	r2, #3
 8000bdc:	701a      	strb	r2, [r3, #0]

  /* Harmless infinite loop.*/
  while (true) {
 8000bde:	e7fe      	b.n	8000bde <chSysHalt+0xe>
 8000be0:	200009f0 	.word	0x200009f0
 8000be4:	20000cd0 	.word	0x20000cd0
	...

08000bf0 <__idle_thread>:
  (void)p;

  while (true) {
    /*lint -save -e522 [2.2] Apparently no side effects because it contains
      an asm instruction.*/
    port_wait_for_interrupt();
 8000bf0:	e7fe      	b.n	8000bf0 <__idle_thread>
 8000bf2:	bf00      	nop
	...

08000c00 <chTMStartMeasurementX>:
 *
 * @return              The realtime counter value.
 */
__STATIC_FORCEINLINE rtcnt_t port_rt_get_counter_value(void) {

  return DWT->CYCCNT;
 8000c00:	4b01      	ldr	r3, [pc, #4]	; (8000c08 <chTMStartMeasurementX+0x8>)
 8000c02:	685b      	ldr	r3, [r3, #4]
 *
 * @xclass
 */
NOINLINE void chTMStartMeasurementX(time_measurement_t *tmp) {

  tmp->last = chSysGetRealtimeCounterX();
 8000c04:	6083      	str	r3, [r0, #8]
}
 8000c06:	4770      	bx	lr
 8000c08:	e0001000 	.word	0xe0001000
 8000c0c:	00000000 	.word	0x00000000

08000c10 <chTMStopMeasurementX>:
 *
 * @xclass
 */
NOINLINE void chTMStopMeasurementX(time_measurement_t *tmp) {

  tm_stop(tmp, chSysGetRealtimeCounterX(), ch_system.tmc.offset);
 8000c10:	4a0e      	ldr	r2, [pc, #56]	; (8000c4c <chTMStopMeasurementX+0x3c>)
 8000c12:	4b0f      	ldr	r3, [pc, #60]	; (8000c50 <chTMStopMeasurementX+0x40>)
  tmp->last = (now - tmp->last) - offset;
 8000c14:	6881      	ldr	r1, [r0, #8]
 8000c16:	685b      	ldr	r3, [r3, #4]
NOINLINE void chTMStopMeasurementX(time_measurement_t *tmp) {
 8000c18:	b410      	push	{r4}
  tm_stop(tmp, chSysGetRealtimeCounterX(), ch_system.tmc.offset);
 8000c1a:	6894      	ldr	r4, [r2, #8]
  tmp->cumulative += (rttime_t)tmp->last;
 8000c1c:	6902      	ldr	r2, [r0, #16]
  tmp->last = (now - tmp->last) - offset;
 8000c1e:	1b1b      	subs	r3, r3, r4
 8000c20:	1a5b      	subs	r3, r3, r1
  tmp->cumulative += (rttime_t)tmp->last;
 8000c22:	18d2      	adds	r2, r2, r3
 8000c24:	6941      	ldr	r1, [r0, #20]
 8000c26:	6102      	str	r2, [r0, #16]
  if (tmp->last > tmp->worst) {
 8000c28:	6842      	ldr	r2, [r0, #4]
  tmp->n++;
 8000c2a:	68c4      	ldr	r4, [r0, #12]
  tmp->cumulative += (rttime_t)tmp->last;
 8000c2c:	f141 0100 	adc.w	r1, r1, #0
  if (tmp->last > tmp->worst) {
 8000c30:	4293      	cmp	r3, r2
  if (tmp->last < tmp->best) {
 8000c32:	6802      	ldr	r2, [r0, #0]
    tmp->worst = tmp->last;
 8000c34:	bf88      	it	hi
 8000c36:	6043      	strhi	r3, [r0, #4]
  tmp->n++;
 8000c38:	3401      	adds	r4, #1
  if (tmp->last < tmp->best) {
 8000c3a:	4293      	cmp	r3, r2
  tmp->last = (now - tmp->last) - offset;
 8000c3c:	e9c0 3402 	strd	r3, r4, [r0, #8]
  tmp->cumulative += (rttime_t)tmp->last;
 8000c40:	6141      	str	r1, [r0, #20]
}
 8000c42:	f85d 4b04 	ldr.w	r4, [sp], #4
    tmp->best = tmp->last;
 8000c46:	bf38      	it	cc
 8000c48:	6003      	strcc	r3, [r0, #0]
}
 8000c4a:	4770      	bx	lr
 8000c4c:	20000cd0 	.word	0x20000cd0
 8000c50:	e0001000 	.word	0xe0001000
	...

08000c60 <_pal_lld_setgroupmode.constprop.0>:
 * @param[in] mask      the group mask
 * @param[in] mode      the mode
 *
 * @notapi
 */
void _pal_lld_setgroupmode(ioportid_t port,
 8000c60:	e92d 43f0 	stmdb	sp!, {r4, r5, r6, r7, r8, r9, lr}
                           ioportmask_t mask,
                           iomode_t mode) {

  uint32_t moder   = (mode & PAL_STM32_MODE_MASK) >> 0;
 8000c64:	f001 0603 	and.w	r6, r1, #3
  uint32_t otyper  = (mode & PAL_STM32_OTYPE_MASK) >> 2;
  uint32_t ospeedr = (mode & PAL_STM32_OSPEED_MASK) >> 3;
 8000c68:	ea4f 0ed1 	mov.w	lr, r1, lsr #3

      altrmask = altr << ((bit & 7) * 4);
      m1 = 1 << bit;
      m2 = 3 << (bit * 2);
      m4 = 15 << ((bit & 7) * 4);
      port->OTYPER  = (port->OTYPER & ~m1) | otyper;
 8000c6c:	4a27      	ldr	r2, [pc, #156]	; (8000d0c <_pal_lld_setgroupmode.constprop.0+0xac>)
  uint32_t moder   = (mode & PAL_STM32_MODE_MASK) >> 0;
 8000c6e:	4635      	mov	r5, r6
  uint32_t bit     = 0;
 8000c70:	2100      	movs	r1, #0
      m4 = 15 << ((bit & 7) * 4);
 8000c72:	f04f 090f 	mov.w	r9, #15
      m1 = 1 << bit;
 8000c76:	f04f 0801 	mov.w	r8, #1
      m2 = 3 << (bit * 2);
 8000c7a:	2703      	movs	r7, #3
 8000c7c:	e00f      	b.n	8000c9e <_pal_lld_setgroupmode.constprop.0+0x3e>
        port->MODER   = (port->MODER & ~m2) | moder;
      }
      else {
        /* If going into a non-alternate mode then the mode is switched
           before setting the alternate mode in order to avoid glitches.*/
        port->MODER   = (port->MODER & ~m2) | moder;
 8000c7e:	6814      	ldr	r4, [r2, #0]
 8000c80:	4023      	ands	r3, r4
 8000c82:	432b      	orrs	r3, r5
        if (bit < 8)
 8000c84:	2907      	cmp	r1, #7
        port->MODER   = (port->MODER & ~m2) | moder;
 8000c86:	6013      	str	r3, [r2, #0]
        if (bit < 8)
 8000c88:	d836      	bhi.n	8000cf8 <_pal_lld_setgroupmode.constprop.0+0x98>
          port->AFRL = (port->AFRL & ~m4) | altrmask;
 8000c8a:	6a13      	ldr	r3, [r2, #32]
 8000c8c:	ea23 030c 	bic.w	r3, r3, ip
 8000c90:	6213      	str	r3, [r2, #32]
        else
          port->AFRH = (port->AFRH & ~m4) | altrmask;
      }
    }
    mask >>= 1;
    if (!mask)
 8000c92:	0840      	lsrs	r0, r0, #1
 8000c94:	d02e      	beq.n	8000cf4 <_pal_lld_setgroupmode.constprop.0+0x94>
      return;
    otyper <<= 1;
    ospeedr <<= 2;
 8000c96:	ea4f 0e8e 	mov.w	lr, lr, lsl #2
    pupdr <<= 2;
    moder <<= 2;
 8000c9a:	00ad      	lsls	r5, r5, #2
    bit++;
 8000c9c:	3101      	adds	r1, #1
    if ((mask & 1) != 0) {
 8000c9e:	07c3      	lsls	r3, r0, #31
 8000ca0:	d5f7      	bpl.n	8000c92 <_pal_lld_setgroupmode.constprop.0+0x32>
      port->OTYPER  = (port->OTYPER & ~m1) | otyper;
 8000ca2:	6853      	ldr	r3, [r2, #4]
      m1 = 1 << bit;
 8000ca4:	fa08 f401 	lsl.w	r4, r8, r1
      port->OTYPER  = (port->OTYPER & ~m1) | otyper;
 8000ca8:	ea23 0304 	bic.w	r3, r3, r4
 8000cac:	6053      	str	r3, [r2, #4]
      port->OSPEEDR = (port->OSPEEDR & ~m2) | ospeedr;
 8000cae:	6894      	ldr	r4, [r2, #8]
      m2 = 3 << (bit * 2);
 8000cb0:	004b      	lsls	r3, r1, #1
 8000cb2:	fa07 f303 	lsl.w	r3, r7, r3
      port->OSPEEDR = (port->OSPEEDR & ~m2) | ospeedr;
 8000cb6:	ea24 0403 	bic.w	r4, r4, r3
 8000cba:	ea44 040e 	orr.w	r4, r4, lr
 8000cbe:	6094      	str	r4, [r2, #8]
      port->PUPDR   = (port->PUPDR & ~m2) | pupdr;
 8000cc0:	68d4      	ldr	r4, [r2, #12]
      altrmask = altr << ((bit & 7) * 4);
 8000cc2:	f001 0c07 	and.w	ip, r1, #7
      port->PUPDR   = (port->PUPDR & ~m2) | pupdr;
 8000cc6:	ea24 0403 	bic.w	r4, r4, r3
      altrmask = altr << ((bit & 7) * 4);
 8000cca:	ea4f 0c8c 	mov.w	ip, ip, lsl #2
      if ((mode & PAL_STM32_MODE_MASK) == PAL_STM32_MODE_ALTERNATE) {
 8000cce:	2e02      	cmp	r6, #2
      port->PUPDR   = (port->PUPDR & ~m2) | pupdr;
 8000cd0:	60d4      	str	r4, [r2, #12]
      m4 = 15 << ((bit & 7) * 4);
 8000cd2:	fa09 fc0c 	lsl.w	ip, r9, ip
      port->OSPEEDR = (port->OSPEEDR & ~m2) | ospeedr;
 8000cd6:	ea6f 0303 	mvn.w	r3, r3
      if ((mode & PAL_STM32_MODE_MASK) == PAL_STM32_MODE_ALTERNATE) {
 8000cda:	d1d0      	bne.n	8000c7e <_pal_lld_setgroupmode.constprop.0+0x1e>
        if (bit < 8)
 8000cdc:	2907      	cmp	r1, #7
 8000cde:	d810      	bhi.n	8000d02 <_pal_lld_setgroupmode.constprop.0+0xa2>
          port->AFRL = (port->AFRL & ~m4) | altrmask;
 8000ce0:	6a14      	ldr	r4, [r2, #32]
 8000ce2:	ea24 040c 	bic.w	r4, r4, ip
 8000ce6:	6214      	str	r4, [r2, #32]
        port->MODER   = (port->MODER & ~m2) | moder;
 8000ce8:	6814      	ldr	r4, [r2, #0]
 8000cea:	4023      	ands	r3, r4
 8000cec:	432b      	orrs	r3, r5
    if (!mask)
 8000cee:	0840      	lsrs	r0, r0, #1
        port->MODER   = (port->MODER & ~m2) | moder;
 8000cf0:	6013      	str	r3, [r2, #0]
    if (!mask)
 8000cf2:	d1d0      	bne.n	8000c96 <_pal_lld_setgroupmode.constprop.0+0x36>
  }
}
 8000cf4:	e8bd 83f0 	ldmia.w	sp!, {r4, r5, r6, r7, r8, r9, pc}
          port->AFRH = (port->AFRH & ~m4) | altrmask;
 8000cf8:	6a53      	ldr	r3, [r2, #36]	; 0x24
 8000cfa:	ea23 030c 	bic.w	r3, r3, ip
 8000cfe:	6253      	str	r3, [r2, #36]	; 0x24
 8000d00:	e7c7      	b.n	8000c92 <_pal_lld_setgroupmode.constprop.0+0x32>
          port->AFRH = (port->AFRH & ~m4) | altrmask;
 8000d02:	6a54      	ldr	r4, [r2, #36]	; 0x24
 8000d04:	ea24 040c 	bic.w	r4, r4, ip
 8000d08:	6254      	str	r4, [r2, #36]	; 0x24
 8000d0a:	e7ed      	b.n	8000ce8 <_pal_lld_setgroupmode.constprop.0+0x88>
 8000d0c:	40020000 	.word	0x40020000

08000d10 <dac_lld_put_channel.constprop.0>:
 */
void dac_lld_put_channel(DACDriver *dacp,
                         dacchannel_t channel,
                         dacsample_t sample) {

  switch (dacp->config->datamode) {
 8000d10:	4a0e      	ldr	r2, [pc, #56]	; (8000d4c <dac_lld_put_channel.constprop.0+0x3c>)
 8000d12:	6913      	ldr	r3, [r2, #16]
 8000d14:	789b      	ldrb	r3, [r3, #2]
 8000d16:	2b01      	cmp	r3, #1
 8000d18:	d003      	beq.n	8000d22 <dac_lld_put_channel.constprop.0+0x12>
 8000d1a:	2b02      	cmp	r3, #2
 8000d1c:	d008      	beq.n	8000d30 <dac_lld_put_channel.constprop.0+0x20>
 8000d1e:	b173      	cbz	r3, 8000d3e <dac_lld_put_channel.constprop.0+0x2e>
    break;
  default:
    osalDbgAssert(false, "unexpected DAC mode");
    break;
  }
}
 8000d20:	4770      	bx	lr
      *(&dacp->params->dac->DHR12L1 + dacp->params->dataoffset) = (uint32_t)sample;
 8000d22:	6a92      	ldr	r2, [r2, #40]	; 0x28
 8000d24:	e9d2 3200 	ldrd	r3, r2, [r2]
 8000d28:	330c      	adds	r3, #12
 8000d2a:	f843 0022 	str.w	r0, [r3, r2, lsl #2]
 8000d2e:	4770      	bx	lr
      *(&dacp->params->dac->DHR8R1 + dacp->params->dataoffset) = (uint32_t)sample;
 8000d30:	6a92      	ldr	r2, [r2, #40]	; 0x28
 8000d32:	e9d2 3200 	ldrd	r3, r2, [r2]
 8000d36:	3310      	adds	r3, #16
 8000d38:	f843 0022 	str.w	r0, [r3, r2, lsl #2]
}
 8000d3c:	4770      	bx	lr
      *(&dacp->params->dac->DHR12R1 + dacp->params->dataoffset) = (uint32_t)sample;
 8000d3e:	6a92      	ldr	r2, [r2, #40]	; 0x28
 8000d40:	e9d2 3200 	ldrd	r3, r2, [r2]
 8000d44:	3308      	adds	r3, #8
 8000d46:	f843 0022 	str.w	r0, [r3, r2, lsl #2]
 8000d4a:	4770      	bx	lr
 8000d4c:	2000083c 	.word	0x2000083c

08000d50 <sdObjectInit.constprop.0>:
#if !defined(SERIAL_ADVANCED_BUFFERING_SUPPORT) ||                          \
    (SERIAL_ADVANCED_BUFFERING_SUPPORT == FALSE) ||                         \
    defined(__DOXYGEN__)
void sdObjectInit(SerialDriver *sdp, qnotify_t inotify, qnotify_t onotify) {

  sdp->vmt = &vmt;
 8000d50:	4603      	mov	r3, r0
 8000d52:	4a15      	ldr	r2, [pc, #84]	; (8000da8 <sdObjectInit.constprop.0+0x58>)
void sdObjectInit(SerialDriver *sdp, qnotify_t inotify, qnotify_t onotify) {
 8000d54:	b410      	push	{r4}
  sdp->vmt = &vmt;
 8000d56:	f843 2b04 	str.w	r2, [r3], #4
  osalEventObjectInit(&sdp->event);
  sdp->state = SD_STOP;
  iqObjectInit(&sdp->iqueue, sdp->ib, SERIAL_BUFFERS_SIZE, inotify, sdp);
 8000d5a:	f100 040c 	add.w	r4, r0, #12
 8000d5e:	f100 0254 	add.w	r2, r0, #84	; 0x54
  oqp->q_counter = size;
  oqp->q_buffer  = bp;
  oqp->q_rdptr   = bp;
  oqp->q_wrptr   = bp;
  oqp->q_top     = bp + size;
  oqp->q_notify  = onfy;
 8000d62:	64c1      	str	r1, [r0, #76]	; 0x4c
  iqp->q_counter = 0;
 8000d64:	2100      	movs	r1, #0
 8000d66:	6141      	str	r1, [r0, #20]
 * @notapi
 */
static inline void ch_queue_init(ch_queue_t *qp) {

  qp->next = qp;
  qp->prev = qp;
 8000d68:	e9c0 4403 	strd	r4, r4, [r0, #12]
  iqp->q_wrptr   = bp;
 8000d6c:	e9c0 2208 	strd	r2, r2, [r0, #32]
  oqp->q_counter = size;
 8000d70:	2410      	movs	r4, #16
  sdp->state = SD_STOP;
 8000d72:	f04f 0c01 	mov.w	ip, #1
 *
 * @init
 */
static inline void chEvtObjectInit(event_source_t *esp) {

  esp->next = (event_listener_t *)esp;
 8000d76:	6043      	str	r3, [r0, #4]
  iqp->q_notify  = infy;
 8000d78:	6281      	str	r1, [r0, #40]	; 0x28
  iqp->q_top     = bp + size;
 8000d7a:	f100 0364 	add.w	r3, r0, #100	; 0x64
  oqObjectInit(&sdp->oqueue, sdp->ob, SERIAL_BUFFERS_SIZE, onotify, sdp);
 8000d7e:	f100 0130 	add.w	r1, r0, #48	; 0x30
  iqp->q_buffer  = bp;
 8000d82:	6182      	str	r2, [r0, #24]
  oqp->q_top     = bp + size;
 8000d84:	f100 0274 	add.w	r2, r0, #116	; 0x74
  oqp->q_counter = size;
 8000d88:	6384      	str	r4, [r0, #56]	; 0x38
  qp->next = qp;
 8000d8a:	e9c0 010b 	strd	r0, r1, [r0, #44]	; 0x2c
  oqp->q_wrptr   = bp;
 8000d8e:	e9c0 3311 	strd	r3, r3, [r0, #68]	; 0x44
}
 8000d92:	f85d 4b04 	ldr.w	r4, [sp], #4
  sdp->state = SD_STOP;
 8000d96:	f880 c008 	strb.w	ip, [r0, #8]
  iqp->q_top     = bp + size;
 8000d9a:	61c3      	str	r3, [r0, #28]
  qp->prev = qp;
 8000d9c:	6341      	str	r1, [r0, #52]	; 0x34
  oqp->q_buffer  = bp;
 8000d9e:	63c3      	str	r3, [r0, #60]	; 0x3c
  oqp->q_top     = bp + size;
 8000da0:	6402      	str	r2, [r0, #64]	; 0x40
  oqp->q_link    = link;
 8000da2:	6500      	str	r0, [r0, #80]	; 0x50
}
 8000da4:	4770      	bx	lr
 8000da6:	bf00      	nop
 8000da8:	08005064 	.word	0x08005064
 8000dac:	00000000 	.word	0x00000000

08000db0 <_ctl>:
  osalDbgCheck(sdp != NULL);
 8000db0:	b120      	cbz	r0, 8000dbc <_ctl+0xc>
  switch (operation) {
 8000db2:	2901      	cmp	r1, #1
 8000db4:	d106      	bne.n	8000dc4 <_ctl+0x14>
    osalDbgCheck(arg == NULL);
 8000db6:	b90a      	cbnz	r2, 8000dbc <_ctl+0xc>
  return HAL_RET_SUCCESS;
 8000db8:	4610      	mov	r0, r2
 8000dba:	4770      	bx	lr
static msg_t _ctl(void *ip, unsigned int operation, void *arg) {
 8000dbc:	b508      	push	{r3, lr}
  osalDbgCheck(sdp != NULL);
 8000dbe:	4803      	ldr	r0, [pc, #12]	; (8000dcc <_ctl+0x1c>)
 8000dc0:	f7ff ff06 	bl	8000bd0 <chSysHalt>
    return HAL_RET_UNKNOWN_CTL;
 8000dc4:	f06f 0013 	mvn.w	r0, #19
}
 8000dc8:	4770      	bx	lr
 8000dca:	bf00      	nop
 8000dcc:	08004e7c 	.word	0x08004e7c

08000dd0 <vt_set_alarm>:
  sysinterval_t currdelta;

  /* Initial delta is what is configured statically.*/
  currdelta = (sysinterval_t)CH_CFG_ST_TIMEDELTA;

  if (delay < currdelta) {
 8000dd0:	f5b1 4f7f 	cmp.w	r1, #65280	; 0xff00
 8000dd4:	bf28      	it	cs
 8000dd6:	f44f 417f 	movcs.w	r1, #65280	; 0xff00
 8000dda:	2902      	cmp	r1, #2
 8000ddc:	bf38      	it	cc
 8000dde:	2102      	movcc	r1, #2
static void vt_set_alarm(systime_t now, sysinterval_t delay) {
 8000de0:	b508      	push	{r3, lr}
 *
 * @notapi
 */
static inline void st_lld_set_alarm(systime_t abstime) {

  STM32_ST_TIM->CCR[0] = (uint32_t)abstime;
 8000de2:	4a12      	ldr	r2, [pc, #72]	; (8000e2c <vt_set_alarm+0x5c>)

#if CH_CFG_ST_RESOLUTION != CH_CFG_INTERVALS_SIZE
  chDbgCheck(interval <= (sysinterval_t)TIME_MAX_SYSTIME);
#endif

  return systime + (systime_t)interval;
 8000de4:	1843      	adds	r3, r0, r1
 8000de6:	b29b      	uxth	r3, r3
 8000de8:	6353      	str	r3, [r2, #52]	; 0x34
  return (systime_t)STM32_ST_TIM->CNT;
 8000dea:	6a53      	ldr	r3, [r2, #36]	; 0x24
 8000dec:	b29b      	uxth	r3, r3
 */
static inline sysinterval_t chTimeDiffX(systime_t start, systime_t end) {

  /*lint -save -e9033 [10.8] This cast is required by the operation, it is
    known that the destination type can be wider.*/
  return (sysinterval_t)((systime_t)(end - start));
 8000dee:	1a18      	subs	r0, r3, r0
 8000df0:	b280      	uxth	r0, r0
       that the alarm is set before the deadline is reached because the
       comparison could happen on the transition depending on the timer
       architecture.*/
    newnow = chVTGetSystemTimeX();
    nowdelta = chTimeDiffX(now, newnow);
    if (likely(nowdelta < delay)) {
 8000df2:	4281      	cmp	r1, r0
      break;
    }

    /* Trying again with a more relaxed minimum delta.*/
    currdelta += (sysinterval_t)1;
 8000df4:	bf98      	it	ls
 8000df6:	2003      	movls	r0, #3
    if (likely(nowdelta < delay)) {
 8000df8:	d901      	bls.n	8000dfe <vt_set_alarm+0x2e>
  }
#else
  /* Assertions as fallback.*/
  chDbgAssert(currdelta <= CH_CFG_ST_TIMEDELTA, "insufficient delta");
#endif
}
 8000dfa:	bd08      	pop	{r3, pc}
 8000dfc:	460b      	mov	r3, r1
  return systime + (systime_t)interval;
 8000dfe:	1819      	adds	r1, r3, r0
  STM32_ST_TIM->CCR[0] = (uint32_t)abstime;
 8000e00:	b289      	uxth	r1, r1
 8000e02:	6351      	str	r1, [r2, #52]	; 0x34
  return (systime_t)STM32_ST_TIM->CNT;
 8000e04:	6a51      	ldr	r1, [r2, #36]	; 0x24
 8000e06:	b289      	uxth	r1, r1
  return (sysinterval_t)((systime_t)(end - start));
 8000e08:	1acb      	subs	r3, r1, r3
 8000e0a:	b29b      	uxth	r3, r3
    if (likely(nowdelta < delay)) {
 8000e0c:	4283      	cmp	r3, r0
 8000e0e:	d205      	bcs.n	8000e1c <vt_set_alarm+0x4c>
 * @param[in] mask      fault flags to be added
 */
void chRFCUCollectFaultsI(rfcu_mask_t mask) {

#if CH_CFG_SMP_MODE == FALSE
  currcore->rfcu.mask |= mask;
 8000e10:	4a07      	ldr	r2, [pc, #28]	; (8000e30 <vt_set_alarm+0x60>)
 8000e12:	6b53      	ldr	r3, [r2, #52]	; 0x34
 8000e14:	f043 0301 	orr.w	r3, r3, #1
 8000e18:	6353      	str	r3, [r2, #52]	; 0x34
}
 8000e1a:	bd08      	pop	{r3, pc}
    currdelta += (sysinterval_t)1;
 8000e1c:	3001      	adds	r0, #1
  chDbgCheck(interval <= (sysinterval_t)TIME_MAX_SYSTIME);
 8000e1e:	f5b0 3f80 	cmp.w	r0, #65536	; 0x10000
 8000e22:	d1eb      	bne.n	8000dfc <vt_set_alarm+0x2c>
 8000e24:	4803      	ldr	r0, [pc, #12]	; (8000e34 <vt_set_alarm+0x64>)
 8000e26:	f7ff fed3 	bl	8000bd0 <chSysHalt>
 8000e2a:	bf00      	nop
 8000e2c:	40014800 	.word	0x40014800
 8000e30:	200009f0 	.word	0x200009f0
 8000e34:	08004e54 	.word	0x08004e54
	...

08000e40 <__sch_wakeup>:
}

/*
 * Timeout wakeup callback.
 */
static void __sch_wakeup(virtual_timer_t *vtp, void *p) {
 8000e40:	b510      	push	{r4, lr}
  \details Assigns the given value to the Base Priority register.
  \param [in]    basePri  Base Priority value to set
 */
__STATIC_FORCEINLINE void __set_BASEPRI(uint32_t basePri)
{
  __ASM volatile ("MSR basepri, %0" : : "r" (basePri) : "memory");
 8000e42:	2330      	movs	r3, #48	; 0x30
 8000e44:	f383 8811 	msr	BASEPRI, r3
 * @notapi
 */
void __dbg_check_lock_from_isr(void) {
  os_instance_t *oip = currcore;

  if (unlikely((oip->dbg.isr_cnt <= (cnt_t)0) ||
 8000e48:	4a22      	ldr	r2, [pc, #136]	; (8000ed4 <__sch_wakeup+0x94>)
 8000e4a:	f8d2 3088 	ldr.w	r3, [r2, #136]	; 0x88
 8000e4e:	2b00      	cmp	r3, #0
 8000e50:	dd3c      	ble.n	8000ecc <__sch_wakeup+0x8c>
 8000e52:	f8d2 308c 	ldr.w	r3, [r2, #140]	; 0x8c
 8000e56:	2b00      	cmp	r3, #0
 8000e58:	d138      	bne.n	8000ecc <__sch_wakeup+0x8c>
               (oip->dbg.lock_cnt != (cnt_t)0))) {
    chSysHalt("SV#6");
  }
  oip->dbg.lock_cnt = (cnt_t)1;
 8000e5a:	2301      	movs	r3, #1
 8000e5c:	f8c2 308c 	str.w	r3, [r2, #140]	; 0x8c
  thread_t *tp = threadref(p);

  (void)vtp;

  chSysLockFromISR();
  switch (tp->state) {
 8000e60:	f891 3024 	ldrb.w	r3, [r1, #36]	; 0x24
 8000e64:	2b0c      	cmp	r3, #12
 8000e66:	d810      	bhi.n	8000e8a <__sch_wakeup+0x4a>
 8000e68:	e8df f003 	tbb	[pc, r3]
 8000e6c:	260f0f2a 	.word	0x260f0f2a
 8000e70:	0b0f070b 	.word	0x0b0f070b
 8000e74:	0f0f0f0f 	.word	0x0f0f0f0f
 8000e78:	0b          	.byte	0x0b
 8000e79:	00          	.byte	0x00
  case CH_STATE_SUSPENDED:
    *tp->u.wttrp = NULL;
    break;
#if CH_CFG_USE_SEMAPHORES == TRUE
  case CH_STATE_WTSEM:
    chSemFastSignalI(tp->u.wtsemp);
 8000e7a:	6a88      	ldr	r0, [r1, #40]	; 0x28
 */
static inline void chSemFastSignalI(semaphore_t *sp) {

  chDbgCheckClassI();

  sp->cnt++;
 8000e7c:	6883      	ldr	r3, [r0, #8]
 8000e7e:	3301      	adds	r3, #1
 8000e80:	6083      	str	r3, [r0, #8]
 *
 * @notapi
 */
static inline ch_queue_t *ch_queue_dequeue(ch_queue_t *p) {

  p->prev->next = p->next;
 8000e82:	e9d1 3000 	ldrd	r3, r0, [r1]
 8000e86:	6003      	str	r3, [r0, #0]
  p->next->prev = p->prev;
 8000e88:	6058      	str	r0, [r3, #4]
    /* Any other state, nothing to do.*/
    break;
  }

  /* Standard message for timeout conditions.*/
  tp->u.rdymsg = MSG_TIMEOUT;
 8000e8a:	f04f 34ff 	mov.w	r4, #4294967295
  tp->state = CH_STATE_READY;
 8000e8e:	2000      	movs	r0, #0
  tp->u.rdymsg = MSG_TIMEOUT;
 8000e90:	628c      	str	r4, [r1, #40]	; 0x28
  return threadref(ch_pqueue_insert_behind(&tp->owner->rlist.pqueue,
 8000e92:	698b      	ldr	r3, [r1, #24]
                                                           ch_priority_queue_t *p) {

  /* Scanning priority queue, the list is assumed to be mostly empty.*/
  do {
    pqp = pqp->next;
  } while (unlikely(pqp->prio >= p->prio));
 8000e94:	688c      	ldr	r4, [r1, #8]
  tp->state = CH_STATE_READY;
 8000e96:	f881 0024 	strb.w	r0, [r1, #36]	; 0x24
    pqp = pqp->next;
 8000e9a:	681b      	ldr	r3, [r3, #0]
  } while (unlikely(pqp->prio >= p->prio));
 8000e9c:	6898      	ldr	r0, [r3, #8]
 8000e9e:	42a0      	cmp	r0, r4
 8000ea0:	d2fb      	bcs.n	8000e9a <__sch_wakeup+0x5a>

  /* Insertion on prev.*/
  p->next       = pqp;
  p->prev       = pqp->prev;
 8000ea2:	685c      	ldr	r4, [r3, #4]

  if (unlikely((oip->dbg.isr_cnt <= (cnt_t)0) ||
               (oip->dbg.lock_cnt <= (cnt_t)0))) {
    chSysHalt("SV#7");
  }
  oip->dbg.lock_cnt = (cnt_t)0;
 8000ea4:	2000      	movs	r0, #0
 8000ea6:	e9c1 3400 	strd	r3, r4, [r1]
  p->prev->next = p;
 8000eaa:	6021      	str	r1, [r4, #0]
  pqp->prev     = p;
 8000eac:	6059      	str	r1, [r3, #4]
 8000eae:	f8c2 008c 	str.w	r0, [r2, #140]	; 0x8c
 8000eb2:	f380 8811 	msr	BASEPRI, r0
  /* Goes behind peers because it went to sleep voluntarily.*/
  (void) __sch_ready_behind(tp);
  chSysUnlockFromISR();

  return;
}
 8000eb6:	bd10      	pop	{r4, pc}
    *tp->u.wttrp = NULL;
 8000eb8:	6a8b      	ldr	r3, [r1, #40]	; 0x28
 8000eba:	2000      	movs	r0, #0
 8000ebc:	6018      	str	r0, [r3, #0]
    break;
 8000ebe:	e7e4      	b.n	8000e8a <__sch_wakeup+0x4a>
 8000ec0:	2300      	movs	r3, #0
 8000ec2:	f8c2 308c 	str.w	r3, [r2, #140]	; 0x8c
 8000ec6:	f383 8811 	msr	BASEPRI, r3
}
 8000eca:	bd10      	pop	{r4, pc}
    chSysHalt("SV#6");
 8000ecc:	4802      	ldr	r0, [pc, #8]	; (8000ed8 <__sch_wakeup+0x98>)
 8000ece:	f7ff fe7f 	bl	8000bd0 <chSysHalt>
 8000ed2:	bf00      	nop
 8000ed4:	200009f0 	.word	0x200009f0
 8000ed8:	08004c88 	.word	0x08004c88
 8000edc:	00000000 	.word	0x00000000

08000ee0 <chMtxObjectInit>:
void chMtxObjectInit(mutex_t *mp) {

  chDbgCheck(mp != NULL);

  ch_queue_init(&mp->queue);
  mp->owner = NULL;
 8000ee0:	2300      	movs	r3, #0
  qp->prev = qp;
 8000ee2:	e9c0 0000 	strd	r0, r0, [r0]
 8000ee6:	6083      	str	r3, [r0, #8]
#if CH_CFG_USE_MUTEXES_RECURSIVE == TRUE
  mp->cnt = (cnt_t)0;
#endif
}
 8000ee8:	4770      	bx	lr
 8000eea:	bf00      	nop
 8000eec:	0000      	movs	r0, r0
	...

08000ef0 <chEvtBroadcastFlagsI>:
 * @param[in] esp       pointer to the @p event_source_t structure
 * @param[in] flags     the flags set to be added to the listener flags mask
 *
 * @iclass
 */
void chEvtBroadcastFlagsI(event_source_t *esp, eventflags_t flags) {
 8000ef0:	b5f8      	push	{r3, r4, r5, r6, r7, lr}
 * @api
 */
void chDbgCheckClassI(void) {
  os_instance_t *oip = currcore;

  if (unlikely((oip->dbg.isr_cnt < (cnt_t)0) ||
 8000ef2:	4b25      	ldr	r3, [pc, #148]	; (8000f88 <chEvtBroadcastFlagsI+0x98>)
 8000ef4:	f8d3 2088 	ldr.w	r2, [r3, #136]	; 0x88
 8000ef8:	2a00      	cmp	r2, #0
 8000efa:	db3e      	blt.n	8000f7a <chEvtBroadcastFlagsI+0x8a>
 8000efc:	f8d3 308c 	ldr.w	r3, [r3, #140]	; 0x8c
 8000f00:	2b00      	cmp	r3, #0
 8000f02:	dd3a      	ble.n	8000f7a <chEvtBroadcastFlagsI+0x8a>
  event_listener_t *elp;

  chDbgCheckClassI();
  chDbgCheck(esp != NULL);

  elp = esp->next;
 8000f04:	6803      	ldr	r3, [r0, #0]
  /*lint -save -e9087 -e740 [11.3, 1.3] Cast required by list handling.*/
  while (elp != (event_listener_t *)esp) {
 8000f06:	4298      	cmp	r0, r3
 8000f08:	d019      	beq.n	8000f3e <chEvtBroadcastFlagsI+0x4e>
    tp->u.rdymsg = MSG_OK;
 8000f0a:	2500      	movs	r5, #0
  /*lint -restore*/
    elp->flags |= flags;
 8000f0c:	68da      	ldr	r2, [r3, #12]
 8000f0e:	430a      	orrs	r2, r1
 8000f10:	60da      	str	r2, [r3, #12]
    /* When flags == 0 the thread will always be signaled because the
       source does not emit any flag.*/
    if ((flags == (eventflags_t)0) ||
 8000f12:	b111      	cbz	r1, 8000f1a <chEvtBroadcastFlagsI+0x2a>
        ((flags & elp->wflags) != (eventflags_t)0)) {
 8000f14:	691a      	ldr	r2, [r3, #16]
    if ((flags == (eventflags_t)0) ||
 8000f16:	4211      	tst	r1, r2
 8000f18:	d00e      	beq.n	8000f38 <chEvtBroadcastFlagsI+0x48>
      chEvtSignalI(elp->listener, elp->events);
 8000f1a:	685a      	ldr	r2, [r3, #4]
  chDbgCheck(tp != NULL);
 8000f1c:	2a00      	cmp	r2, #0
 8000f1e:	d02f      	beq.n	8000f80 <chEvtBroadcastFlagsI+0x90>
  tp->epending |= events;
 8000f20:	689c      	ldr	r4, [r3, #8]
 8000f22:	6b96      	ldr	r6, [r2, #56]	; 0x38
  if (((tp->state == CH_STATE_WTOREVT) &&
 8000f24:	f892 c024 	ldrb.w	ip, [r2, #36]	; 0x24
  tp->epending |= events;
 8000f28:	4334      	orrs	r4, r6
  if (((tp->state == CH_STATE_WTOREVT) &&
 8000f2a:	f1bc 0f0a 	cmp.w	ip, #10
  tp->epending |= events;
 8000f2e:	6394      	str	r4, [r2, #56]	; 0x38
  if (((tp->state == CH_STATE_WTOREVT) &&
 8000f30:	d01c      	beq.n	8000f6c <chEvtBroadcastFlagsI+0x7c>
       ((tp->epending & tp->u.ewmask) != (eventmask_t)0)) ||
 8000f32:	f1bc 0f0b 	cmp.w	ip, #11
 8000f36:	d003      	beq.n	8000f40 <chEvtBroadcastFlagsI+0x50>
    }
    elp = elp->next;
 8000f38:	681b      	ldr	r3, [r3, #0]
  while (elp != (event_listener_t *)esp) {
 8000f3a:	4298      	cmp	r0, r3
 8000f3c:	d1e6      	bne.n	8000f0c <chEvtBroadcastFlagsI+0x1c>
  }
}
 8000f3e:	bdf8      	pop	{r3, r4, r5, r6, r7, pc}
      ((tp->state == CH_STATE_WTANDEVT) &&
 8000f40:	6a96      	ldr	r6, [r2, #40]	; 0x28
 8000f42:	ea36 0404 	bics.w	r4, r6, r4
 8000f46:	d1f7      	bne.n	8000f38 <chEvtBroadcastFlagsI+0x48>
  return threadref(ch_pqueue_insert_behind(&tp->owner->rlist.pqueue,
 8000f48:	6994      	ldr	r4, [r2, #24]
  } while (unlikely(pqp->prio >= p->prio));
 8000f4a:	6897      	ldr	r7, [r2, #8]
    tp->u.rdymsg = MSG_OK;
 8000f4c:	6295      	str	r5, [r2, #40]	; 0x28
  tp->state = CH_STATE_READY;
 8000f4e:	f882 5024 	strb.w	r5, [r2, #36]	; 0x24
    pqp = pqp->next;
 8000f52:	6824      	ldr	r4, [r4, #0]
  } while (unlikely(pqp->prio >= p->prio));
 8000f54:	68a6      	ldr	r6, [r4, #8]
 8000f56:	42be      	cmp	r6, r7
 8000f58:	d2fb      	bcs.n	8000f52 <chEvtBroadcastFlagsI+0x62>
    elp = elp->next;
 8000f5a:	681b      	ldr	r3, [r3, #0]
  p->prev       = pqp->prev;
 8000f5c:	6866      	ldr	r6, [r4, #4]
  p->next       = pqp;
 8000f5e:	6014      	str	r4, [r2, #0]
  while (elp != (event_listener_t *)esp) {
 8000f60:	4298      	cmp	r0, r3
  p->prev       = pqp->prev;
 8000f62:	6056      	str	r6, [r2, #4]
  p->prev->next = p;
 8000f64:	6032      	str	r2, [r6, #0]
  pqp->prev     = p;
 8000f66:	6062      	str	r2, [r4, #4]
 8000f68:	d1d0      	bne.n	8000f0c <chEvtBroadcastFlagsI+0x1c>
 8000f6a:	e7e8      	b.n	8000f3e <chEvtBroadcastFlagsI+0x4e>
  if (((tp->state == CH_STATE_WTOREVT) &&
 8000f6c:	6a96      	ldr	r6, [r2, #40]	; 0x28
 8000f6e:	4234      	tst	r4, r6
 8000f70:	d1ea      	bne.n	8000f48 <chEvtBroadcastFlagsI+0x58>
    elp = elp->next;
 8000f72:	681b      	ldr	r3, [r3, #0]
  while (elp != (event_listener_t *)esp) {
 8000f74:	4298      	cmp	r0, r3
 8000f76:	d1c9      	bne.n	8000f0c <chEvtBroadcastFlagsI+0x1c>
 8000f78:	e7e1      	b.n	8000f3e <chEvtBroadcastFlagsI+0x4e>
               (oip->dbg.lock_cnt <= (cnt_t)0))) {
    chSysHalt("SV#10");
 8000f7a:	4804      	ldr	r0, [pc, #16]	; (8000f8c <chEvtBroadcastFlagsI+0x9c>)
 8000f7c:	f7ff fe28 	bl	8000bd0 <chSysHalt>
  chDbgCheck(tp != NULL);
 8000f80:	4803      	ldr	r0, [pc, #12]	; (8000f90 <chEvtBroadcastFlagsI+0xa0>)
 8000f82:	f7ff fe25 	bl	8000bd0 <chSysHalt>
 8000f86:	bf00      	nop
 8000f88:	200009f0 	.word	0x200009f0
 8000f8c:	08004c90 	.word	0x08004c90
 8000f90:	08004e6c 	.word	0x08004e6c
	...

08000fa0 <chCoreAllocFromTop>:
 * @return              A pointer to the allocated memory block.
 * @retval NULL         allocation failed, core memory exhausted.
 *
 * @api
 */
void *chCoreAllocFromTop(size_t size, unsigned align, size_t offset) {
 8000fa0:	b538      	push	{r3, r4, r5, lr}
 8000fa2:	2330      	movs	r3, #48	; 0x30
 8000fa4:	f383 8811 	msr	BASEPRI, r3
  if (unlikely((oip->dbg.isr_cnt != (cnt_t)0) ||
 8000fa8:	4b16      	ldr	r3, [pc, #88]	; (8001004 <chCoreAllocFromTop+0x64>)
 8000faa:	e9d3 4522 	ldrd	r4, r5, [r3, #136]	; 0x88
 8000fae:	ea54 0c05 	orrs.w	ip, r4, r5
 8000fb2:	d121      	bne.n	8000ff8 <chCoreAllocFromTop+0x58>
  oip->dbg.lock_cnt = (cnt_t)1;
 8000fb4:	2401      	movs	r4, #1
 8000fb6:	f8c3 408c 	str.w	r4, [r3, #140]	; 0x8c
  chDbgCheck(MEM_IS_VALID_ALIGNMENT(align));
 8000fba:	b301      	cbz	r1, 8000ffe <chCoreAllocFromTop+0x5e>
 8000fbc:	f101 3cff 	add.w	ip, r1, #4294967295
 8000fc0:	ea1c 0c01 	ands.w	ip, ip, r1
 8000fc4:	d11b      	bne.n	8000ffe <chCoreAllocFromTop+0x5e>
  p = (uint8_t *)MEM_ALIGN_PREV(ch_memcore.topmem - size, align);
 8000fc6:	4c10      	ldr	r4, [pc, #64]	; (8001008 <chCoreAllocFromTop+0x68>)
 8000fc8:	6865      	ldr	r5, [r4, #4]
 8000fca:	4249      	negs	r1, r1
 8000fcc:	1a28      	subs	r0, r5, r0
 8000fce:	4008      	ands	r0, r1
  if ((prev < ch_memcore.basemem) || (prev > ch_memcore.topmem)) {
 8000fd0:	6821      	ldr	r1, [r4, #0]
  prev = p - offset;
 8000fd2:	1a82      	subs	r2, r0, r2
  if ((prev < ch_memcore.basemem) || (prev > ch_memcore.topmem)) {
 8000fd4:	428a      	cmp	r2, r1
 8000fd6:	d308      	bcc.n	8000fea <chCoreAllocFromTop+0x4a>
 8000fd8:	4295      	cmp	r5, r2
 8000fda:	d306      	bcc.n	8000fea <chCoreAllocFromTop+0x4a>
  ch_memcore.topmem = prev;
 8000fdc:	6062      	str	r2, [r4, #4]
  oip->dbg.lock_cnt = (cnt_t)0;
 8000fde:	2200      	movs	r2, #0
 8000fe0:	f8c3 208c 	str.w	r2, [r3, #140]	; 0x8c
 8000fe4:	f382 8811 	msr	BASEPRI, r2
  chSysLock();
  p = chCoreAllocFromTopI(size, align, offset);
  chSysUnlock();

  return p;
}
 8000fe8:	bd38      	pop	{r3, r4, r5, pc}
 8000fea:	2200      	movs	r2, #0
    return NULL;
 8000fec:	4660      	mov	r0, ip
 8000fee:	f8c3 208c 	str.w	r2, [r3, #140]	; 0x8c
 8000ff2:	f382 8811 	msr	BASEPRI, r2
}
 8000ff6:	bd38      	pop	{r3, r4, r5, pc}
    chSysHalt("SV#4");
 8000ff8:	4804      	ldr	r0, [pc, #16]	; (800100c <chCoreAllocFromTop+0x6c>)
 8000ffa:	f7ff fde9 	bl	8000bd0 <chSysHalt>
  chDbgCheck(MEM_IS_VALID_ALIGNMENT(align));
 8000ffe:	4804      	ldr	r0, [pc, #16]	; (8001010 <chCoreAllocFromTop+0x70>)
 8001000:	f7ff fde6 	bl	8000bd0 <chSysHalt>
 8001004:	200009f0 	.word	0x200009f0
 8001008:	20000cc8 	.word	0x20000cc8
 800100c:	08004c98 	.word	0x08004c98
 8001010:	08004e24 	.word	0x08004e24
	...

08001020 <chCoreAllocAlignedI>:
  if (unlikely((oip->dbg.isr_cnt < (cnt_t)0) ||
 8001020:	4b10      	ldr	r3, [pc, #64]	; (8001064 <chCoreAllocAlignedI+0x44>)
 8001022:	f8d3 2088 	ldr.w	r2, [r3, #136]	; 0x88
 8001026:	2a00      	cmp	r2, #0
 * @return              A pointer to the allocated memory block.
 * @retval NULL         allocation failed, core memory exhausted.
 *
 * @iclass
 */
static inline void *chCoreAllocAlignedI(size_t size, unsigned align) {
 8001028:	b510      	push	{r4, lr}
 800102a:	db15      	blt.n	8001058 <chCoreAllocAlignedI+0x38>
 800102c:	f8d3 308c 	ldr.w	r3, [r3, #140]	; 0x8c
 8001030:	2b00      	cmp	r3, #0
 8001032:	dd11      	ble.n	8001058 <chCoreAllocAlignedI+0x38>
 8001034:	b199      	cbz	r1, 800105e <chCoreAllocAlignedI+0x3e>
 8001036:	1e4b      	subs	r3, r1, #1
 8001038:	400b      	ands	r3, r1
 800103a:	d110      	bne.n	800105e <chCoreAllocAlignedI+0x3e>
  p = (uint8_t *)MEM_ALIGN_PREV(ch_memcore.topmem - size, align);
 800103c:	4a0a      	ldr	r2, [pc, #40]	; (8001068 <chCoreAllocAlignedI+0x48>)
 800103e:	6854      	ldr	r4, [r2, #4]
 8001040:	4249      	negs	r1, r1
 8001042:	1a20      	subs	r0, r4, r0
 8001044:	4008      	ands	r0, r1
  if ((prev < ch_memcore.basemem) || (prev > ch_memcore.topmem)) {
 8001046:	6811      	ldr	r1, [r2, #0]
 8001048:	4288      	cmp	r0, r1
 800104a:	d303      	bcc.n	8001054 <chCoreAllocAlignedI+0x34>
 800104c:	4284      	cmp	r4, r0
 800104e:	d301      	bcc.n	8001054 <chCoreAllocAlignedI+0x34>
  ch_memcore.topmem = prev;
 8001050:	6050      	str	r0, [r2, #4]

  return chCoreAllocAlignedWithOffsetI(size, align, 0U);
}
 8001052:	bd10      	pop	{r4, pc}
    return NULL;
 8001054:	4618      	mov	r0, r3
 8001056:	bd10      	pop	{r4, pc}
    chSysHalt("SV#10");
 8001058:	4804      	ldr	r0, [pc, #16]	; (800106c <chCoreAllocAlignedI+0x4c>)
 800105a:	f7ff fdb9 	bl	8000bd0 <chSysHalt>
  chDbgCheck(MEM_IS_VALID_ALIGNMENT(align));
 800105e:	4804      	ldr	r0, [pc, #16]	; (8001070 <chCoreAllocAlignedI+0x50>)
 8001060:	f7ff fdb6 	bl	8000bd0 <chSysHalt>
 8001064:	200009f0 	.word	0x200009f0
 8001068:	20000cc8 	.word	0x20000cc8
 800106c:	08004c90 	.word	0x08004c90
 8001070:	08004e24 	.word	0x08004e24
	...

08001080 <vt_insert_first.constprop.0>:

/**
 * @brief   Inserts a timer as first element in a delta list.
 * @note    This is the special case when the delta list is initially empty.
 */
static void vt_insert_first(virtual_timers_list_t *vtlp,
 8001080:	b538      	push	{r3, r4, r5, lr}
                            sysinterval_t delay) {
  sysinterval_t currdelta;

  /* The delta list is empty, the current time becomes the new
     delta list base time, the timer is inserted.*/
  vtlp->lasttime = now;
 8001082:	4c1e      	ldr	r4, [pc, #120]	; (80010fc <vt_insert_first.constprop.0+0x7c>)
 8001084:	f5b2 4f7f 	cmp.w	r2, #65280	; 0xff00
 8001088:	83a1      	strh	r1, [r4, #28]
static inline void ch_dlist_insert_after(ch_delta_list_t *dlhp,
                                         ch_delta_list_t *dlp,
                                         sysinterval_t delta) {

  dlp->delta      = delta;
  dlp->prev       = dlhp;
 800108a:	f104 0310 	add.w	r3, r4, #16
  dlp->delta      = delta;
 800108e:	6082      	str	r2, [r0, #8]
 8001090:	bf28      	it	cs
 8001092:	f44f 427f 	movcs.w	r2, #65280	; 0xff00
  dlp->prev       = dlhp;
 8001096:	6043      	str	r3, [r0, #4]
 8001098:	2a02      	cmp	r2, #2
  dlp->next       = dlp->prev->next;
 800109a:	6923      	ldr	r3, [r4, #16]
 800109c:	6003      	str	r3, [r0, #0]
 800109e:	bf38      	it	cc
 80010a0:	2202      	movcc	r2, #2
  dlp->next->prev = dlp;
 80010a2:	6058      	str	r0, [r3, #4]
  return systime + (systime_t)interval;
 80010a4:	188d      	adds	r5, r1, r2
  STM32_ST_TIM->CCR[0] = (uint32_t)abstime;
 80010a6:	4b16      	ldr	r3, [pc, #88]	; (8001100 <vt_insert_first.constprop.0+0x80>)
  dlhp->next      = dlp;
 80010a8:	6120      	str	r0, [r4, #16]
 80010aa:	b2ad      	uxth	r5, r5
  STM32_ST_TIM->SR     = 0;
 80010ac:	2000      	movs	r0, #0
  STM32_ST_TIM->CCR[0] = (uint32_t)abstime;
 80010ae:	635d      	str	r5, [r3, #52]	; 0x34
  STM32_ST_TIM->SR     = 0;
 80010b0:	6118      	str	r0, [r3, #16]
  STM32_ST_TIM->DIER   = STM32_TIM_DIER_CC1IE;
 80010b2:	2002      	movs	r0, #2
 80010b4:	60d8      	str	r0, [r3, #12]
  return (systime_t)STM32_ST_TIM->CNT;
 80010b6:	6a58      	ldr	r0, [r3, #36]	; 0x24
 80010b8:	b280      	uxth	r0, r0
  return (sysinterval_t)((systime_t)(end - start));
 80010ba:	eba0 0c01 	sub.w	ip, r0, r1
 80010be:	fa1f fc8c 	uxth.w	ip, ip
       Note that the "<" condition is intentional, we want to make sure
       that the alarm is set before the deadline is reached because the
       comparison could happen on the transition depending on the timer
       architecture.*/
    newnow = chVTGetSystemTimeX();
    if (likely(chTimeDiffX(now, newnow) < delay)) {
 80010c2:	4594      	cmp	ip, r2
      break;
    }

    /* Trying again with a more relaxed minimum delta.*/
    currdelta += (sysinterval_t)1;
 80010c4:	bf28      	it	cs
 80010c6:	2503      	movcs	r5, #3
    if (likely(chTimeDiffX(now, newnow) < delay)) {
 80010c8:	d206      	bcs.n	80010d8 <vt_insert_first.constprop.0+0x58>
  }
#else
  /* Assertions as fallback.*/
  chDbgAssert(currdelta <= CH_CFG_ST_TIMEDELTA, "insufficient delta");
#endif
}
 80010ca:	bd38      	pop	{r3, r4, r5, pc}
    currdelta += (sysinterval_t)1;
 80010cc:	3501      	adds	r5, #1
  chDbgCheck(interval <= (sysinterval_t)TIME_MAX_SYSTIME);
 80010ce:	f5b5 3f80 	cmp.w	r5, #65536	; 0x10000
 80010d2:	4601      	mov	r1, r0
 80010d4:	d00e      	beq.n	80010f4 <vt_insert_first.constprop.0+0x74>
 80010d6:	4610      	mov	r0, r2
  return systime + (systime_t)interval;
 80010d8:	4429      	add	r1, r5
  STM32_ST_TIM->CCR[0] = (uint32_t)abstime;
 80010da:	b289      	uxth	r1, r1
 80010dc:	6359      	str	r1, [r3, #52]	; 0x34
  return (systime_t)STM32_ST_TIM->CNT;
 80010de:	6a5a      	ldr	r2, [r3, #36]	; 0x24
 80010e0:	b292      	uxth	r2, r2
  return (sysinterval_t)((systime_t)(end - start));
 80010e2:	1a11      	subs	r1, r2, r0
 80010e4:	b289      	uxth	r1, r1
    if (likely(chTimeDiffX(now, newnow) < delay)) {
 80010e6:	42a9      	cmp	r1, r5
 80010e8:	d2f0      	bcs.n	80010cc <vt_insert_first.constprop.0+0x4c>
 80010ea:	6b63      	ldr	r3, [r4, #52]	; 0x34
 80010ec:	f043 0301 	orr.w	r3, r3, #1
 80010f0:	6363      	str	r3, [r4, #52]	; 0x34
}
 80010f2:	bd38      	pop	{r3, r4, r5, pc}
  chDbgCheck(interval <= (sysinterval_t)TIME_MAX_SYSTIME);
 80010f4:	4803      	ldr	r0, [pc, #12]	; (8001104 <vt_insert_first.constprop.0+0x84>)
 80010f6:	f7ff fd6b 	bl	8000bd0 <chSysHalt>
 80010fa:	bf00      	nop
 80010fc:	200009f0 	.word	0x200009f0
 8001100:	40014800 	.word	0x40014800
 8001104:	08004e54 	.word	0x08004e54
	...

08001110 <chSchReadyI.isra.0>:
 * @param[in] tp        the thread to be made ready
 * @return              The thread pointer.
 *
 * @iclass
 */
thread_t *chSchReadyI(thread_t *tp) {
 8001110:	b508      	push	{r3, lr}
  if (unlikely((oip->dbg.isr_cnt < (cnt_t)0) ||
 8001112:	4b0f      	ldr	r3, [pc, #60]	; (8001150 <chSchReadyI.isra.0+0x40>)
 8001114:	f8d3 2088 	ldr.w	r2, [r3, #136]	; 0x88
 8001118:	2a00      	cmp	r2, #0
 800111a:	db13      	blt.n	8001144 <chSchReadyI.isra.0+0x34>
 800111c:	f8d3 308c 	ldr.w	r3, [r3, #140]	; 0x8c
 8001120:	2b00      	cmp	r3, #0
 8001122:	dd0f      	ble.n	8001144 <chSchReadyI.isra.0+0x34>

  chDbgCheckClassI();
  chDbgCheck(tp != NULL);
 8001124:	b188      	cbz	r0, 800114a <chSchReadyI.isra.0+0x3a>
  tp->state = CH_STATE_READY;
 8001126:	2200      	movs	r2, #0
  return threadref(ch_pqueue_insert_behind(&tp->owner->rlist.pqueue,
 8001128:	6983      	ldr	r3, [r0, #24]
  } while (unlikely(pqp->prio >= p->prio));
 800112a:	6881      	ldr	r1, [r0, #8]
  tp->state = CH_STATE_READY;
 800112c:	f880 2024 	strb.w	r2, [r0, #36]	; 0x24
    pqp = pqp->next;
 8001130:	681b      	ldr	r3, [r3, #0]
  } while (unlikely(pqp->prio >= p->prio));
 8001132:	689a      	ldr	r2, [r3, #8]
 8001134:	428a      	cmp	r2, r1
 8001136:	d2fb      	bcs.n	8001130 <chSchReadyI.isra.0+0x20>
  p->prev       = pqp->prev;
 8001138:	685a      	ldr	r2, [r3, #4]
 800113a:	e9c0 3200 	strd	r3, r2, [r0]
  p->prev->next = p;
 800113e:	6010      	str	r0, [r2, #0]
  pqp->prev     = p;
 8001140:	6058      	str	r0, [r3, #4]
    chSysNotifyInstance(tp->owner);
  }
#endif

  return __sch_ready_behind(tp);
}
 8001142:	bd08      	pop	{r3, pc}
    chSysHalt("SV#10");
 8001144:	4803      	ldr	r0, [pc, #12]	; (8001154 <chSchReadyI.isra.0+0x44>)
 8001146:	f7ff fd43 	bl	8000bd0 <chSysHalt>
  chDbgCheck(tp != NULL);
 800114a:	4803      	ldr	r0, [pc, #12]	; (8001158 <chSchReadyI.isra.0+0x48>)
 800114c:	f7ff fd40 	bl	8000bd0 <chSysHalt>
 8001150:	200009f0 	.word	0x200009f0
 8001154:	08004c90 	.word	0x08004c90
 8001158:	08004e0c 	.word	0x08004e0c
 800115c:	00000000 	.word	0x00000000

08001160 <sd_lld_serve_interrupt>:
/**
 * @brief   Common IRQ handler.
 *
 * @param[in] sdp       communication channel associated to the USART
 */
void sd_lld_serve_interrupt(SerialDriver *sdp) {
 8001160:	e92d 4ff0 	stmdb	sp!, {r4, r5, r6, r7, r8, r9, sl, fp, lr}
  USART_TypeDef *u = sdp->usart;
 8001164:	6f46      	ldr	r6, [r0, #116]	; 0x74
  uint16_t cr1 = u->CR1;
 8001166:	f8d6 a00c 	ldr.w	sl, [r6, #12]
  uint16_t sr = u->SR;
 800116a:	f8d6 8000 	ldr.w	r8, [r6]

  /* Special case, LIN break detection.*/
  if (sr & USART_SR_LBD) {
 800116e:	f418 7f80 	tst.w	r8, #256	; 0x100
void sd_lld_serve_interrupt(SerialDriver *sdp) {
 8001172:	b083      	sub	sp, #12
 8001174:	4604      	mov	r4, r0
  if (sr & USART_SR_LBD) {
 8001176:	f040 8096 	bne.w	80012a6 <sd_lld_serve_interrupt+0x146>
 800117a:	4f9f      	ldr	r7, [pc, #636]	; (80013f8 <sd_lld_serve_interrupt+0x298>)
 800117c:	2330      	movs	r3, #48	; 0x30
 800117e:	f383 8811 	msr	BASEPRI, r3
  if (unlikely((oip->dbg.isr_cnt <= (cnt_t)0) ||
 8001182:	f8d7 3088 	ldr.w	r3, [r7, #136]	; 0x88
 8001186:	2b00      	cmp	r3, #0
 8001188:	f340 80b0 	ble.w	80012ec <sd_lld_serve_interrupt+0x18c>
 800118c:	f8d7 908c 	ldr.w	r9, [r7, #140]	; 0x8c
 8001190:	f1b9 0f00 	cmp.w	r9, #0
 8001194:	f040 80aa 	bne.w	80012ec <sd_lld_serve_interrupt+0x18c>
  oip->dbg.lock_cnt = (cnt_t)1;
 8001198:	2301      	movs	r3, #1
    osalSysUnlockFromISR();
  }

  /* Data available.*/
  osalSysLockFromISR();
  while (sr & (USART_SR_RXNE | USART_SR_ORE | USART_SR_NE | USART_SR_FE |
 800119a:	f018 0f2f 	tst.w	r8, #47	; 0x2f
 800119e:	f8c7 308c 	str.w	r3, [r7, #140]	; 0x8c
  uint16_t sr = u->SR;
 80011a2:	fa1f f588 	uxth.w	r5, r8
  while (sr & (USART_SR_RXNE | USART_SR_ORE | USART_SR_NE | USART_SR_FE |
 80011a6:	d019      	beq.n	80011dc <sd_lld_serve_interrupt+0x7c>
  chnAddFlagsI(sdp, sts);
 80011a8:	f104 0804 	add.w	r8, r4, #4
  osalDbgCheckClassI();
  osalDbgCheck(sdp != NULL);

  if (iqIsEmptyI(&sdp->iqueue))
    chnAddFlagsI(sdp, CHN_INPUT_AVAILABLE);
  if (iqPutI(&sdp->iqueue, b) < MSG_OK)
 80011ac:	f104 0b0c 	add.w	fp, r4, #12
               USART_SR_PE)) {
    uint8_t b;

    /* Error condition detection.*/
    if (sr & (USART_SR_ORE | USART_SR_NE | USART_SR_FE  | USART_SR_PE))
 80011b0:	0729      	lsls	r1, r5, #28
 80011b2:	d127      	bne.n	8001204 <sd_lld_serve_interrupt+0xa4>
      set_error(sdp, sr);
    b = (uint8_t)u->DR & sdp->rxmask;
    if (sr & USART_SR_RXNE)
 80011b4:	06a9      	lsls	r1, r5, #26
    b = (uint8_t)u->DR & sdp->rxmask;
 80011b6:	6872      	ldr	r2, [r6, #4]
 80011b8:	f894 307c 	ldrb.w	r3, [r4, #124]	; 0x7c
    if (sr & USART_SR_RXNE)
 80011bc:	d439      	bmi.n	8001232 <sd_lld_serve_interrupt+0xd2>
      sdIncomingDataI(sdp, b);
    sr = u->SR;
 80011be:	6833      	ldr	r3, [r6, #0]
  while (sr & (USART_SR_RXNE | USART_SR_ORE | USART_SR_NE | USART_SR_FE |
 80011c0:	f013 0f2f 	tst.w	r3, #47	; 0x2f
    sr = u->SR;
 80011c4:	b29d      	uxth	r5, r3
  while (sr & (USART_SR_RXNE | USART_SR_ORE | USART_SR_NE | USART_SR_FE |
 80011c6:	d1f3      	bne.n	80011b0 <sd_lld_serve_interrupt+0x50>
  if (unlikely((oip->dbg.isr_cnt <= (cnt_t)0) ||
 80011c8:	f8d7 3088 	ldr.w	r3, [r7, #136]	; 0x88
 80011cc:	2b00      	cmp	r3, #0
 80011ce:	f340 80ad 	ble.w	800132c <sd_lld_serve_interrupt+0x1cc>
 80011d2:	f8d7 308c 	ldr.w	r3, [r7, #140]	; 0x8c
 80011d6:	2b00      	cmp	r3, #0
 80011d8:	f340 80a8 	ble.w	800132c <sd_lld_serve_interrupt+0x1cc>
  oip->dbg.lock_cnt = (cnt_t)0;
 80011dc:	2300      	movs	r3, #0
 80011de:	f8c7 308c 	str.w	r3, [r7, #140]	; 0x8c
 80011e2:	f383 8811 	msr	BASEPRI, r3
  }
  osalSysUnlockFromISR();

  /* Transmission buffer empty.*/
  if ((cr1 & USART_CR1_TXEIE) && (sr & USART_SR_TXE)) {
 80011e6:	f01a 0f80 	tst.w	sl, #128	; 0x80
 80011ea:	d002      	beq.n	80011f2 <sd_lld_serve_interrupt+0x92>
 80011ec:	062a      	lsls	r2, r5, #24
 80011ee:	f100 80a0 	bmi.w	8001332 <sd_lld_serve_interrupt+0x1d2>
      u->DR = b;
    osalSysUnlockFromISR();
  }

  /* Physical transmission end.*/
  if ((cr1 & USART_CR1_TCIE) && (sr & USART_SR_TC)) {
 80011f2:	f01a 0f40 	tst.w	sl, #64	; 0x40
 80011f6:	d002      	beq.n	80011fe <sd_lld_serve_interrupt+0x9e>
 80011f8:	066b      	lsls	r3, r5, #25
 80011fa:	f100 80d5 	bmi.w	80013a8 <sd_lld_serve_interrupt+0x248>
      chnAddFlagsI(sdp, CHN_TRANSMISSION_END);
      u->CR1 = cr1 & ~USART_CR1_TCIE;
    }
    osalSysUnlockFromISR();
  }
}
 80011fe:	b003      	add	sp, #12
 8001200:	e8bd 8ff0 	ldmia.w	sp!, {r4, r5, r6, r7, r8, r9, sl, fp, pc}
  if (sr & USART_SR_ORE)
 8001204:	f3c5 01c0 	ubfx	r1, r5, #3, #1
 8001208:	0209      	lsls	r1, r1, #8
  if (sr & USART_SR_PE)
 800120a:	07ea      	lsls	r2, r5, #31
    sts |= SD_PARITY_ERROR;
 800120c:	bf48      	it	mi
 800120e:	f041 0120 	orrmi.w	r1, r1, #32
  if (sr & USART_SR_FE)
 8001212:	07ab      	lsls	r3, r5, #30
    sts |= SD_FRAMING_ERROR;
 8001214:	bf48      	it	mi
 8001216:	f041 0140 	orrmi.w	r1, r1, #64	; 0x40
  if (sr & USART_SR_NE)
 800121a:	0768      	lsls	r0, r5, #29
    sts |= SD_NOISE_ERROR;
 800121c:	bf48      	it	mi
 800121e:	f041 0180 	orrmi.w	r1, r1, #128	; 0x80
 * @iclass
 */
static inline void osalEventBroadcastFlagsI(event_source_t *esp,
                                            eventflags_t flags) {

  chEvtBroadcastFlagsI(esp, flags);
 8001222:	4640      	mov	r0, r8
 8001224:	f7ff fe64 	bl	8000ef0 <chEvtBroadcastFlagsI>
    if (sr & USART_SR_RXNE)
 8001228:	06a9      	lsls	r1, r5, #26
    b = (uint8_t)u->DR & sdp->rxmask;
 800122a:	6872      	ldr	r2, [r6, #4]
 800122c:	f894 307c 	ldrb.w	r3, [r4, #124]	; 0x7c
    if (sr & USART_SR_RXNE)
 8001230:	d5c5      	bpl.n	80011be <sd_lld_serve_interrupt+0x5e>
  if (unlikely((oip->dbg.isr_cnt < (cnt_t)0) ||
 8001232:	f8d7 1088 	ldr.w	r1, [r7, #136]	; 0x88
 8001236:	2900      	cmp	r1, #0
 8001238:	db32      	blt.n	80012a0 <sd_lld_serve_interrupt+0x140>
 800123a:	f8d7 108c 	ldr.w	r1, [r7, #140]	; 0x8c
 800123e:	2900      	cmp	r1, #0
 8001240:	dd2e      	ble.n	80012a0 <sd_lld_serve_interrupt+0x140>
  if (iqIsEmptyI(&sdp->iqueue))
 8001242:	6961      	ldr	r1, [r4, #20]
 8001244:	b1e1      	cbz	r1, 8001280 <sd_lld_serve_interrupt+0x120>
  if (!iqIsFullI(iqp)) {
 8001246:	e9d4 1008 	ldrd	r1, r0, [r4, #32]
 800124a:	4281      	cmp	r1, r0
 800124c:	d051      	beq.n	80012f2 <sd_lld_serve_interrupt+0x192>
    b = (uint8_t)u->DR & sdp->rxmask;
 800124e:	4013      	ands	r3, r2
    iqp->q_counter++;
 8001250:	6962      	ldr	r2, [r4, #20]
 8001252:	3201      	adds	r2, #1
 8001254:	6162      	str	r2, [r4, #20]
    *iqp->q_wrptr++ = b;
 8001256:	1c4a      	adds	r2, r1, #1
 8001258:	6222      	str	r2, [r4, #32]
 800125a:	700b      	strb	r3, [r1, #0]
    if (iqp->q_wrptr >= iqp->q_top) {
 800125c:	e9d4 3207 	ldrd	r3, r2, [r4, #28]
 8001260:	429a      	cmp	r2, r3
 8001262:	d301      	bcc.n	8001268 <sd_lld_serve_interrupt+0x108>
      iqp->q_wrptr = iqp->q_buffer;
 8001264:	69a3      	ldr	r3, [r4, #24]
 8001266:	6223      	str	r3, [r4, #32]
  return (bool)(qp->next != qp);
 8001268:	68e0      	ldr	r0, [r4, #12]
 *
 * @iclass
 */
void chThdDequeueNextI(threads_queue_t *tqp, msg_t msg) {

  if (ch_queue_notempty(&tqp->queue)) {
 800126a:	4583      	cmp	fp, r0
 800126c:	d0a7      	beq.n	80011be <sd_lld_serve_interrupt+0x5e>
  qp->next       = p->next;
 800126e:	6803      	ldr	r3, [r0, #0]
 8001270:	60e3      	str	r3, [r4, #12]
  qp->next->prev = qp;
 8001272:	f8c3 b004 	str.w	fp, [r3, #4]

  tp = threadref(ch_queue_fifo_remove(&tqp->queue));

  chDbgAssert(tp->state == CH_STATE_QUEUED, "invalid state");

  tp->u.rdymsg = msg;
 8001276:	f8c0 9028 	str.w	r9, [r0, #40]	; 0x28
  (void) chSchReadyI(tp);
 800127a:	f7ff ff49 	bl	8001110 <chSchReadyI.isra.0>
 800127e:	e79e      	b.n	80011be <sd_lld_serve_interrupt+0x5e>
 8001280:	2104      	movs	r1, #4
 8001282:	4640      	mov	r0, r8
 8001284:	e9cd 2300 	strd	r2, r3, [sp]
 8001288:	f7ff fe32 	bl	8000ef0 <chEvtBroadcastFlagsI>
 800128c:	f8d7 1088 	ldr.w	r1, [r7, #136]	; 0x88
 8001290:	2900      	cmp	r1, #0
 8001292:	db05      	blt.n	80012a0 <sd_lld_serve_interrupt+0x140>
 8001294:	f8d7 108c 	ldr.w	r1, [r7, #140]	; 0x8c
 8001298:	2900      	cmp	r1, #0
 800129a:	e9dd 2300 	ldrd	r2, r3, [sp]
 800129e:	dcd2      	bgt.n	8001246 <sd_lld_serve_interrupt+0xe6>
    chSysHalt("SV#10");
 80012a0:	4856      	ldr	r0, [pc, #344]	; (80013fc <sd_lld_serve_interrupt+0x29c>)
 80012a2:	f7ff fc95 	bl	8000bd0 <chSysHalt>
 80012a6:	2330      	movs	r3, #48	; 0x30
 80012a8:	f383 8811 	msr	BASEPRI, r3
  if (unlikely((oip->dbg.isr_cnt <= (cnt_t)0) ||
 80012ac:	4f52      	ldr	r7, [pc, #328]	; (80013f8 <sd_lld_serve_interrupt+0x298>)
 80012ae:	f8d7 3088 	ldr.w	r3, [r7, #136]	; 0x88
 80012b2:	2b00      	cmp	r3, #0
 80012b4:	dd1a      	ble.n	80012ec <sd_lld_serve_interrupt+0x18c>
 80012b6:	f8d7 508c 	ldr.w	r5, [r7, #140]	; 0x8c
 80012ba:	b9bd      	cbnz	r5, 80012ec <sd_lld_serve_interrupt+0x18c>
  oip->dbg.lock_cnt = (cnt_t)1;
 80012bc:	2301      	movs	r3, #1
 80012be:	f44f 6180 	mov.w	r1, #1024	; 0x400
 80012c2:	3004      	adds	r0, #4
 80012c4:	f8c7 308c 	str.w	r3, [r7, #140]	; 0x8c
 80012c8:	f7ff fe12 	bl	8000ef0 <chEvtBroadcastFlagsI>
  if (unlikely((oip->dbg.isr_cnt <= (cnt_t)0) ||
 80012cc:	f8d7 3088 	ldr.w	r3, [r7, #136]	; 0x88
    u->SR = ~USART_SR_LBD;
 80012d0:	f46f 7280 	mvn.w	r2, #256	; 0x100
 80012d4:	2b00      	cmp	r3, #0
 80012d6:	6032      	str	r2, [r6, #0]
 80012d8:	dd28      	ble.n	800132c <sd_lld_serve_interrupt+0x1cc>
 80012da:	f8d7 308c 	ldr.w	r3, [r7, #140]	; 0x8c
 80012de:	2b00      	cmp	r3, #0
 80012e0:	dd24      	ble.n	800132c <sd_lld_serve_interrupt+0x1cc>
  oip->dbg.lock_cnt = (cnt_t)0;
 80012e2:	f8c7 508c 	str.w	r5, [r7, #140]	; 0x8c
 80012e6:	f385 8811 	msr	BASEPRI, r5
}
 80012ea:	e747      	b.n	800117c <sd_lld_serve_interrupt+0x1c>
    chSysHalt("SV#6");
 80012ec:	4844      	ldr	r0, [pc, #272]	; (8001400 <sd_lld_serve_interrupt+0x2a0>)
 80012ee:	f7ff fc6f 	bl	8000bd0 <chSysHalt>
  if (!iqIsFullI(iqp)) {
 80012f2:	6960      	ldr	r0, [r4, #20]
 80012f4:	2800      	cmp	r0, #0
 80012f6:	d0aa      	beq.n	800124e <sd_lld_serve_interrupt+0xee>
  chEvtBroadcastFlagsI(esp, flags);
 80012f8:	f44f 6100 	mov.w	r1, #2048	; 0x800
 80012fc:	4640      	mov	r0, r8
 80012fe:	f7ff fdf7 	bl	8000ef0 <chEvtBroadcastFlagsI>
}
 8001302:	e75c      	b.n	80011be <sd_lld_serve_interrupt+0x5e>
    if (oqIsEmptyI(&sdp->oqueue)) {
 8001304:	6ba3      	ldr	r3, [r4, #56]	; 0x38
 8001306:	2b00      	cmp	r3, #0
 8001308:	d060      	beq.n	80013cc <sd_lld_serve_interrupt+0x26c>
  chEvtBroadcastFlagsI(esp, flags);
 800130a:	2110      	movs	r1, #16
 800130c:	1d20      	adds	r0, r4, #4
 800130e:	f7ff fdef 	bl	8000ef0 <chEvtBroadcastFlagsI>
  if (unlikely((oip->dbg.isr_cnt <= (cnt_t)0) ||
 8001312:	f8d7 2088 	ldr.w	r2, [r7, #136]	; 0x88
      u->CR1 = cr1 & ~USART_CR1_TCIE;
 8001316:	f64f 73bf 	movw	r3, #65471	; 0xffbf
 800131a:	ea0a 0303 	and.w	r3, sl, r3
 800131e:	2a00      	cmp	r2, #0
 8001320:	60f3      	str	r3, [r6, #12]
 8001322:	dd03      	ble.n	800132c <sd_lld_serve_interrupt+0x1cc>
 8001324:	f8d7 308c 	ldr.w	r3, [r7, #140]	; 0x8c
 8001328:	2b00      	cmp	r3, #0
 800132a:	dc4f      	bgt.n	80013cc <sd_lld_serve_interrupt+0x26c>
    chSysHalt("SV#7");
 800132c:	4835      	ldr	r0, [pc, #212]	; (8001404 <sd_lld_serve_interrupt+0x2a4>)
 800132e:	f7ff fc4f 	bl	8000bd0 <chSysHalt>
 8001332:	2330      	movs	r3, #48	; 0x30
 8001334:	f383 8811 	msr	BASEPRI, r3
  if (unlikely((oip->dbg.isr_cnt <= (cnt_t)0) ||
 8001338:	f8d7 3088 	ldr.w	r3, [r7, #136]	; 0x88
 800133c:	2b00      	cmp	r3, #0
 800133e:	ddd5      	ble.n	80012ec <sd_lld_serve_interrupt+0x18c>
 8001340:	f8d7 208c 	ldr.w	r2, [r7, #140]	; 0x8c
 8001344:	2a00      	cmp	r2, #0
 8001346:	d1d1      	bne.n	80012ec <sd_lld_serve_interrupt+0x18c>
msg_t oqGetI(output_queue_t *oqp) {

  osalDbgCheckClassI();

  /* Queue data check.*/
  if (!oqIsEmptyI(oqp)) {
 8001348:	e9d4 1211 	ldrd	r1, r2, [r4, #68]	; 0x44
  oip->dbg.lock_cnt = (cnt_t)1;
 800134c:	2001      	movs	r0, #1
 800134e:	4291      	cmp	r1, r2
 8001350:	f8c7 008c 	str.w	r0, [r7, #140]	; 0x8c
    b = oqGetI(&sdp->oqueue);
 8001354:	f104 0c30 	add.w	ip, r4, #48	; 0x30
 8001358:	d03e      	beq.n	80013d8 <sd_lld_serve_interrupt+0x278>
    uint8_t b;

    oqp->q_counter++;
 800135a:	6ba1      	ldr	r1, [r4, #56]	; 0x38
 800135c:	3101      	adds	r1, #1
 800135e:	63a1      	str	r1, [r4, #56]	; 0x38
    b = *oqp->q_rdptr++;
 8001360:	1c51      	adds	r1, r2, #1
 8001362:	64a1      	str	r1, [r4, #72]	; 0x48
 8001364:	f892 8000 	ldrb.w	r8, [r2]
    if (oqp->q_rdptr >= oqp->q_top) {
 8001368:	6c22      	ldr	r2, [r4, #64]	; 0x40
 800136a:	4291      	cmp	r1, r2
 800136c:	d301      	bcc.n	8001372 <sd_lld_serve_interrupt+0x212>
      oqp->q_rdptr = oqp->q_buffer;
 800136e:	6be2      	ldr	r2, [r4, #60]	; 0x3c
 8001370:	64a2      	str	r2, [r4, #72]	; 0x48
  return (bool)(qp->next != qp);
 8001372:	6b20      	ldr	r0, [r4, #48]	; 0x30
 8001374:	4584      	cmp	ip, r0
 8001376:	d009      	beq.n	800138c <sd_lld_serve_interrupt+0x22c>
  qp->next       = p->next;
 8001378:	6803      	ldr	r3, [r0, #0]
 800137a:	6323      	str	r3, [r4, #48]	; 0x30
  qp->next->prev = qp;
 800137c:	f8c3 c004 	str.w	ip, [r3, #4]
  tp->u.rdymsg = msg;
 8001380:	2300      	movs	r3, #0
 8001382:	6283      	str	r3, [r0, #40]	; 0x28
  (void) chSchReadyI(tp);
 8001384:	f7ff fec4 	bl	8001110 <chSchReadyI.isra.0>
  if (unlikely((oip->dbg.isr_cnt <= (cnt_t)0) ||
 8001388:	f8d7 3088 	ldr.w	r3, [r7, #136]	; 0x88
      u->DR = b;
 800138c:	f8c6 8004 	str.w	r8, [r6, #4]
 8001390:	2b00      	cmp	r3, #0
 8001392:	ddcb      	ble.n	800132c <sd_lld_serve_interrupt+0x1cc>
 8001394:	f8d7 308c 	ldr.w	r3, [r7, #140]	; 0x8c
 8001398:	2b00      	cmp	r3, #0
 800139a:	ddc7      	ble.n	800132c <sd_lld_serve_interrupt+0x1cc>
  oip->dbg.lock_cnt = (cnt_t)0;
 800139c:	2300      	movs	r3, #0
 800139e:	f8c7 308c 	str.w	r3, [r7, #140]	; 0x8c
 80013a2:	f383 8811 	msr	BASEPRI, r3
}
 80013a6:	e724      	b.n	80011f2 <sd_lld_serve_interrupt+0x92>
 80013a8:	2330      	movs	r3, #48	; 0x30
 80013aa:	f383 8811 	msr	BASEPRI, r3
  if (unlikely((oip->dbg.isr_cnt <= (cnt_t)0) ||
 80013ae:	f8d7 3088 	ldr.w	r3, [r7, #136]	; 0x88
 80013b2:	2b00      	cmp	r3, #0
 80013b4:	dd9a      	ble.n	80012ec <sd_lld_serve_interrupt+0x18c>
 80013b6:	f8d7 308c 	ldr.w	r3, [r7, #140]	; 0x8c
 80013ba:	2b00      	cmp	r3, #0
 80013bc:	d196      	bne.n	80012ec <sd_lld_serve_interrupt+0x18c>
  oip->dbg.lock_cnt = (cnt_t)1;
 80013be:	2301      	movs	r3, #1
 80013c0:	f8c7 308c 	str.w	r3, [r7, #140]	; 0x8c
    if (oqIsEmptyI(&sdp->oqueue)) {
 80013c4:	e9d4 2311 	ldrd	r2, r3, [r4, #68]	; 0x44
 80013c8:	429a      	cmp	r2, r3
 80013ca:	d09b      	beq.n	8001304 <sd_lld_serve_interrupt+0x1a4>
  oip->dbg.lock_cnt = (cnt_t)0;
 80013cc:	2300      	movs	r3, #0
 80013ce:	f8c7 308c 	str.w	r3, [r7, #140]	; 0x8c
 80013d2:	f383 8811 	msr	BASEPRI, r3
}
 80013d6:	e712      	b.n	80011fe <sd_lld_serve_interrupt+0x9e>
  if (!oqIsEmptyI(oqp)) {
 80013d8:	6ba1      	ldr	r1, [r4, #56]	; 0x38
 80013da:	2900      	cmp	r1, #0
 80013dc:	d0bd      	beq.n	800135a <sd_lld_serve_interrupt+0x1fa>
  chEvtBroadcastFlagsI(esp, flags);
 80013de:	2108      	movs	r1, #8
 80013e0:	1d20      	adds	r0, r4, #4
 80013e2:	f7ff fd85 	bl	8000ef0 <chEvtBroadcastFlagsI>
      u->CR1 = cr1 & ~USART_CR1_TXEIE;
 80013e6:	f64f 737f 	movw	r3, #65407	; 0xff7f
 80013ea:	ea0a 0303 	and.w	r3, sl, r3
 80013ee:	60f3      	str	r3, [r6, #12]
  if (unlikely((oip->dbg.isr_cnt <= (cnt_t)0) ||
 80013f0:	f8d7 3088 	ldr.w	r3, [r7, #136]	; 0x88
 80013f4:	e7cc      	b.n	8001390 <sd_lld_serve_interrupt+0x230>
 80013f6:	bf00      	nop
 80013f8:	200009f0 	.word	0x200009f0
 80013fc:	08004c90 	.word	0x08004c90
 8001400:	08004c88 	.word	0x08004c88
 8001404:	08004ca0 	.word	0x08004ca0
	...

08001410 <chSchGoSleepS>:
 *
 * @param[in] newstate  the new thread state
 *
 * @sclass
 */
void chSchGoSleepS(tstate_t newstate) {
 8001410:	b508      	push	{r3, lr}
 * @api
 */
void chDbgCheckClassS(void) {
  os_instance_t *oip = currcore;

  if (unlikely((oip->dbg.isr_cnt != (cnt_t)0) ||
 8001412:	4b12      	ldr	r3, [pc, #72]	; (800145c <chSchGoSleepS+0x4c>)
 8001414:	f8d3 2088 	ldr.w	r2, [r3, #136]	; 0x88
 8001418:	b9ea      	cbnz	r2, 8001456 <chSchGoSleepS+0x46>
 800141a:	f8d3 208c 	ldr.w	r2, [r3, #140]	; 0x8c
 800141e:	2a00      	cmp	r2, #0
 8001420:	dd19      	ble.n	8001456 <chSchGoSleepS+0x46>
  os_instance_t *oip = currcore;
  thread_t *otp = __instance_get_currthread(oip);
 8001422:	68d9      	ldr	r1, [r3, #12]
  ch_priority_queue_t *p = pqp->next;
 8001424:	681a      	ldr	r2, [r3, #0]

  chDbgAssert(otp != chSysGetIdleThreadX(), "sleeping in idle thread");
  chDbgAssert(otp->owner == oip, "invalid core");

  /* New state.*/
  otp->state = newstate;
 8001426:	f881 0024 	strb.w	r0, [r1, #36]	; 0x24
  pqp->next       = p->next;
 800142a:	6810      	ldr	r0, [r2, #0]
 800142c:	6018      	str	r0, [r3, #0]
  otp->ticks = (tslices_t)CH_CFG_TIME_QUANTUM;
#endif

  /* Next thread in ready list becomes current.*/
  ntp = threadref(ch_pqueue_remove_highest(&oip->rlist.pqueue));
  ntp->state = CH_STATE_CURRENT;
 800142e:	f04f 0c01 	mov.w	ip, #1
  pqp->next->prev = pqp;
 8001432:	6043      	str	r3, [r0, #4]
 8001434:	f882 c024 	strb.w	ip, [r2, #36]	; 0x24
  __instance_set_currthread(oip, ntp);
 8001438:	60da      	str	r2, [r3, #12]
  __ASM volatile ("MRS %0, psp"  : "=r" (result) );
 800143a:	f3ef 8309 	mrs	r3, PSP
  if (ntp->hdr.pqueue.prio == IDLEPRIO) {
    CH_CFG_IDLE_ENTER_HOOK();
  }

  /* Swap operation as tail call.*/
  chSysSwitch(ntp, otp);
 800143e:	6a08      	ldr	r0, [r1, #32]
 8001440:	3b64      	subs	r3, #100	; 0x64
 8001442:	4298      	cmp	r0, r3
 8001444:	d804      	bhi.n	8001450 <chSchGoSleepS+0x40>
}
 8001446:	e8bd 4008 	ldmia.w	sp!, {r3, lr}
  chSysSwitch(ntp, otp);
 800144a:	4610      	mov	r0, r2
 800144c:	f7fe bf5a 	b.w	8000304 <__port_switch>
 8001450:	4803      	ldr	r0, [pc, #12]	; (8001460 <chSchGoSleepS+0x50>)
 8001452:	f7ff fbbd 	bl	8000bd0 <chSysHalt>
               (oip->dbg.lock_cnt <= (cnt_t)0))) {
    chSysHalt("SV#11");
 8001456:	4803      	ldr	r0, [pc, #12]	; (8001464 <chSchGoSleepS+0x54>)
 8001458:	f7ff fbba 	bl	8000bd0 <chSysHalt>
 800145c:	200009f0 	.word	0x200009f0
 8001460:	08004cb0 	.word	0x08004cb0
 8001464:	08004ca8 	.word	0x08004ca8
	...

08001470 <chSchGoSleepTimeoutS>:
 * @return              The wakeup message.
 * @retval MSG_TIMEOUT  if a timeout occurs.
 *
 * @sclass
 */
msg_t chSchGoSleepTimeoutS(tstate_t newstate, sysinterval_t timeout) {
 8001470:	e92d 41f0 	stmdb	sp!, {r4, r5, r6, r7, r8, lr}
  if (unlikely((oip->dbg.isr_cnt != (cnt_t)0) ||
 8001474:	4d45      	ldr	r5, [pc, #276]	; (800158c <chSchGoSleepTimeoutS+0x11c>)
 8001476:	f8d5 3088 	ldr.w	r3, [r5, #136]	; 0x88
 800147a:	b088      	sub	sp, #32
 800147c:	2b00      	cmp	r3, #0
 800147e:	d15e      	bne.n	800153e <chSchGoSleepTimeoutS+0xce>
 8001480:	f8d5 408c 	ldr.w	r4, [r5, #140]	; 0x8c
 8001484:	2c00      	cmp	r4, #0
 8001486:	dd5a      	ble.n	800153e <chSchGoSleepTimeoutS+0xce>
  thread_t *tp = __instance_get_currthread(currcore);

  chDbgCheckClassS();

  if (TIME_INFINITE != timeout) {
 8001488:	1c4c      	adds	r4, r1, #1
  thread_t *tp = __instance_get_currthread(currcore);
 800148a:	68ef      	ldr	r7, [r5, #12]
  if (TIME_INFINITE != timeout) {
 800148c:	460a      	mov	r2, r1
 800148e:	d04d      	beq.n	800152c <chSchGoSleepTimeoutS+0xbc>
void chVTDoSetI(virtual_timer_t *vtp, sysinterval_t delay,
                vtfunc_t vtfunc, void *par) {
  virtual_timers_list_t *vtlp = &currcore->vtlist;

  chDbgCheckClassI();
  chDbgCheck((vtp != NULL) && (vtfunc != NULL) && (delay != TIME_IMMEDIATE));
 8001490:	2900      	cmp	r1, #0
 8001492:	d051      	beq.n	8001538 <chSchGoSleepTimeoutS+0xc8>

  /* Timer initialization.*/
  vtp->par     = par;
 8001494:	e9cd 7306 	strd	r7, r3, [sp, #24]
 8001498:	4b3d      	ldr	r3, [pc, #244]	; (8001590 <chSchGoSleepTimeoutS+0x120>)
  return (bool)(dlhp == dlhp->next);
 800149a:	46a8      	mov	r8, r5
 800149c:	4606      	mov	r6, r0
 800149e:	6a58      	ldr	r0, [r3, #36]	; 0x24
  vtp->func    = vtfunc;
 80014a0:	4b3c      	ldr	r3, [pc, #240]	; (8001594 <chSchGoSleepTimeoutS+0x124>)
 80014a2:	9305      	str	r3, [sp, #20]
 80014a4:	f858 3f10 	ldr.w	r3, [r8, #16]!
    if (ch_dlist_isempty(&vtlp->dlist)) {
 80014a8:	4543      	cmp	r3, r8
 80014aa:	b280      	uxth	r0, r0
 80014ac:	d064      	beq.n	8001578 <chSchGoSleepTimeoutS+0x108>
  return (sysinterval_t)((systime_t)(end - start));
 80014ae:	8bac      	ldrh	r4, [r5, #28]
    if (delta < vtlp->dlist.next->delta) {
 80014b0:	689a      	ldr	r2, [r3, #8]
 80014b2:	1b04      	subs	r4, r0, r4
 80014b4:	b2a4      	uxth	r4, r4
    if (delta < nowdelta) {
 80014b6:	190c      	adds	r4, r1, r4
 80014b8:	bf28      	it	cs
 80014ba:	460c      	movcs	r4, r1
    if (delta < vtlp->dlist.next->delta) {
 80014bc:	42a2      	cmp	r2, r4
 80014be:	d908      	bls.n	80014d2 <chSchGoSleepTimeoutS+0x62>
 80014c0:	9301      	str	r3, [sp, #4]
      vt_set_alarm(now, delay);
 80014c2:	f7ff fc85 	bl	8000dd0 <vt_set_alarm>
 80014c6:	9b01      	ldr	r3, [sp, #4]
 80014c8:	689a      	ldr	r2, [r3, #8]
  ch_delta_list_t *dlp;

  /* The delta list is scanned in order to find the correct position for
     this element. */
  dlp = dlhp->next;
  while (likely(dlp->delta < delta)) {
 80014ca:	e002      	b.n	80014d2 <chSchGoSleepTimeoutS+0x62>
    /* Debug assert if the element is already in the list.*/
    chDbgAssert(dlp != dlep, "element already in list");

    delta -= dlp->delta;
    dlp = dlp->next;
 80014cc:	681b      	ldr	r3, [r3, #0]
    delta -= dlp->delta;
 80014ce:	1aa4      	subs	r4, r4, r2
  while (likely(dlp->delta < delta)) {
 80014d0:	689a      	ldr	r2, [r3, #8]
 80014d2:	42a2      	cmp	r2, r4
 80014d4:	d3fa      	bcc.n	80014cc <chSchGoSleepTimeoutS+0x5c>
  dlp->delta      = delta;
 80014d6:	9404      	str	r4, [sp, #16]

  /* The timer is inserted in the delta list.*/
  ch_dlist_insert_before(dlp, dlep, delta);

  /* Adjusting delta for the following element.*/
  dlp->delta -= delta;
 80014d8:	689a      	ldr	r2, [r3, #8]
  dlp->prev       = dlp->next->prev;
 80014da:	6859      	ldr	r1, [r3, #4]
  dlp->next       = dlhp;
 80014dc:	9302      	str	r3, [sp, #8]
  dlp->delta -= delta;
 80014de:	1b12      	subs	r2, r2, r4
  dlp->prev->next = dlp;
 80014e0:	ac02      	add	r4, sp, #8
  dlp->prev       = dlp->next->prev;
 80014e2:	9103      	str	r1, [sp, #12]
  dlp->prev->next = dlp;
 80014e4:	600c      	str	r4, [r1, #0]
  dlhp->prev      = dlp;
 80014e6:	e9c3 4201 	strd	r4, r2, [r3, #4]

  /* Special case when the inserted element is in last position in the list,
     the value in the header must be restored, just doing it is faster than
     checking then doing.*/
  dlhp->delta = (sysinterval_t)-1;
 80014ea:	f04f 33ff 	mov.w	r3, #4294967295
 80014ee:	61ab      	str	r3, [r5, #24]
    virtual_timer_t vt;

    chVTDoSetI(&vt, timeout, __sch_wakeup, (void *)tp);
    chSchGoSleepS(newstate);
 80014f0:	4630      	mov	r0, r6
 80014f2:	f7ff ff8d 	bl	8001410 <chSchGoSleepS>
  if (unlikely((oip->dbg.isr_cnt < (cnt_t)0) ||
 80014f6:	f8d5 3088 	ldr.w	r3, [r5, #136]	; 0x88
 80014fa:	2b00      	cmp	r3, #0
 80014fc:	db22      	blt.n	8001544 <chSchGoSleepTimeoutS+0xd4>
 80014fe:	f8d5 308c 	ldr.w	r3, [r5, #140]	; 0x8c
 8001502:	2b00      	cmp	r3, #0
 8001504:	dd1e      	ble.n	8001544 <chSchGoSleepTimeoutS+0xd4>
 */
static inline bool chVTIsArmedI(const virtual_timer_t *vtp) {

  chDbgCheckClassI();

  return (bool)(vtp->dlist.next != NULL);
 8001506:	9b02      	ldr	r3, [sp, #8]
    if (chVTIsArmedI(&vt)) {
 8001508:	b163      	cbz	r3, 8001524 <chSchGoSleepTimeoutS+0xb4>
  systime_t now;
  sysinterval_t nowdelta, delta;

  /* If the timer is not the first of the list then it is simply unlinked
     else the operation is more complex.*/
  if (!ch_dlist_isfirst(&vtlp->dlist, &vtp->dlist)) {
 800150a:	692a      	ldr	r2, [r5, #16]
 800150c:	42a2      	cmp	r2, r4
 800150e:	d01c      	beq.n	800154a <chSchGoSleepTimeoutS+0xda>
 *
 * @notapi
 */
static inline ch_delta_list_t *ch_dlist_dequeue(ch_delta_list_t *dlp) {

  dlp->prev->next = dlp->next;
 8001510:	e9dd 1003 	ldrd	r1, r0, [sp, #12]

    /* Removing the element from the delta list.*/
    (void) ch_dlist_dequeue(&vtp->dlist);

    /* Adding delta to the next element, if it is not the last one.*/
    vtp->dlist.next->delta += vtp->dlist.delta;
 8001514:	689a      	ldr	r2, [r3, #8]
 8001516:	600b      	str	r3, [r1, #0]
 8001518:	4402      	add	r2, r0
 800151a:	e9c3 1201 	strd	r1, r2, [r3, #4]
    vtp->dlist.next = NULL;

    /* Special case when the removed element from the last position in the list,
       the value in the header must be restored, just doing it is faster than
       checking then doing.*/
    vtlp->dlist.delta = (sysinterval_t)-1;
 800151e:	f04f 33ff 	mov.w	r3, #4294967295
 8001522:	61ab      	str	r3, [r5, #24]
  else {
    chSchGoSleepS(newstate);
  }

  return tp->u.rdymsg;
}
 8001524:	6ab8      	ldr	r0, [r7, #40]	; 0x28
 8001526:	b008      	add	sp, #32
 8001528:	e8bd 81f0 	ldmia.w	sp!, {r4, r5, r6, r7, r8, pc}
    chSchGoSleepS(newstate);
 800152c:	f7ff ff70 	bl	8001410 <chSchGoSleepS>
}
 8001530:	6ab8      	ldr	r0, [r7, #40]	; 0x28
 8001532:	b008      	add	sp, #32
 8001534:	e8bd 81f0 	ldmia.w	sp!, {r4, r5, r6, r7, r8, pc}
  chDbgCheck((vtp != NULL) && (vtfunc != NULL) && (delay != TIME_IMMEDIATE));
 8001538:	4817      	ldr	r0, [pc, #92]	; (8001598 <chSchGoSleepTimeoutS+0x128>)
 800153a:	f7ff fb49 	bl	8000bd0 <chSysHalt>
    chSysHalt("SV#11");
 800153e:	4817      	ldr	r0, [pc, #92]	; (800159c <chSchGoSleepTimeoutS+0x12c>)
 8001540:	f7ff fb46 	bl	8000bd0 <chSysHalt>
    chSysHalt("SV#10");
 8001544:	4816      	ldr	r0, [pc, #88]	; (80015a0 <chSchGoSleepTimeoutS+0x130>)
 8001546:	f7ff fb43 	bl	8000bd0 <chSysHalt>
    return;
  }

  /* Removing the first timer from the list, marking it as not armed.*/
  ch_dlist_remove_first(&vtlp->dlist);
  vtp->dlist.next = NULL;
 800154a:	2200      	movs	r2, #0

  /* If the list become empty then the alarm timer is stopped and done.*/
  if (ch_dlist_isempty(&vtlp->dlist)) {
 800154c:	4543      	cmp	r3, r8
  dlhp->next       = dlp->next;
 800154e:	612b      	str	r3, [r5, #16]
  vtp->dlist.next = NULL;
 8001550:	9202      	str	r2, [sp, #8]
  dlhp->next->prev = dlhp;
 8001552:	f8c3 8004 	str.w	r8, [r3, #4]
  if (ch_dlist_isempty(&vtlp->dlist)) {
 8001556:	d015      	beq.n	8001584 <chSchGoSleepTimeoutS+0x114>

    return;
  }

  /* The delta of the removed timer is added to the new first timer.*/
  vtlp->dlist.next->delta += vtp->dlist.delta;
 8001558:	6899      	ldr	r1, [r3, #8]
 800155a:	9804      	ldr	r0, [sp, #16]
 800155c:	8baa      	ldrh	r2, [r5, #28]
 800155e:	4401      	add	r1, r0
 8001560:	480b      	ldr	r0, [pc, #44]	; (8001590 <chSchGoSleepTimeoutS+0x120>)
 8001562:	6099      	str	r1, [r3, #8]
 8001564:	6a40      	ldr	r0, [r0, #36]	; 0x24
 8001566:	b280      	uxth	r0, r0
 8001568:	1a83      	subs	r3, r0, r2
 800156a:	b29b      	uxth	r3, r3
  now = chVTGetSystemTimeX();
  nowdelta = chTimeDiffX(vtlp->lasttime, now);

  /* If the current time surpassed the time of the next element in list
     then the event interrupt is already pending, just return.*/
  if (nowdelta >= vtlp->dlist.next->delta) {
 800156c:	4299      	cmp	r1, r3
 800156e:	d9d9      	bls.n	8001524 <chSchGoSleepTimeoutS+0xb4>

  /* Distance from the next scheduled event and now.*/
  delta = vtlp->dlist.next->delta - nowdelta;

  /* Setting up the alarm.*/
  vt_set_alarm(now, delta);
 8001570:	1ac9      	subs	r1, r1, r3
 8001572:	f7ff fc2d 	bl	8000dd0 <vt_set_alarm>
 8001576:	e7d5      	b.n	8001524 <chSchGoSleepTimeoutS+0xb4>
      vt_insert_first(vtlp, vtp, now, delay);
 8001578:	ac02      	add	r4, sp, #8
 800157a:	4601      	mov	r1, r0
 800157c:	4620      	mov	r0, r4
 800157e:	f7ff fd7f 	bl	8001080 <vt_insert_first.constprop.0>
      return;
 8001582:	e7b5      	b.n	80014f0 <chSchGoSleepTimeoutS+0x80>
  STM32_ST_TIM->DIER = 0U;
 8001584:	4b02      	ldr	r3, [pc, #8]	; (8001590 <chSchGoSleepTimeoutS+0x120>)
 8001586:	60da      	str	r2, [r3, #12]
 * @api
 */
void stStopAlarm(void) {

  st_lld_stop_alarm();
}
 8001588:	e7cc      	b.n	8001524 <chSchGoSleepTimeoutS+0xb4>
 800158a:	bf00      	nop
 800158c:	200009f0 	.word	0x200009f0
 8001590:	40014800 	.word	0x40014800
 8001594:	08000e41 	.word	0x08000e41
 8001598:	08004e60 	.word	0x08004e60
 800159c:	08004ca8 	.word	0x08004ca8
 80015a0:	08004c90 	.word	0x08004c90
	...

080015b0 <iqReadTimeout>:
                     size_t n, sysinterval_t timeout) {
 80015b0:	e92d 4ff0 	stmdb	sp!, {r4, r5, r6, r7, r8, r9, sl, fp, lr}
  qnotify_t nfy = iqp->q_notify;
 80015b4:	f8d0 a01c 	ldr.w	sl, [r0, #28]
                     size_t n, sysinterval_t timeout) {
 80015b8:	b085      	sub	sp, #20
  osalDbgCheck(n > 0U);
 80015ba:	2a00      	cmp	r2, #0
 80015bc:	f000 8089 	beq.w	80016d2 <iqReadTimeout+0x122>
  __ASM volatile ("MSR basepri, %0" : : "r" (basePri) : "memory");
 80015c0:	4690      	mov	r8, r2
 80015c2:	460f      	mov	r7, r1
 80015c4:	4699      	mov	r9, r3
 80015c6:	2230      	movs	r2, #48	; 0x30
 80015c8:	f382 8811 	msr	BASEPRI, r2
  if (unlikely((oip->dbg.isr_cnt != (cnt_t)0) ||
 80015cc:	4e42      	ldr	r6, [pc, #264]	; (80016d8 <iqReadTimeout+0x128>)
 80015ce:	e9d6 3122 	ldrd	r3, r1, [r6, #136]	; 0x88
 80015d2:	430b      	orrs	r3, r1
 80015d4:	d177      	bne.n	80016c6 <iqReadTimeout+0x116>
  oip->dbg.lock_cnt = (cnt_t)1;
 80015d6:	2301      	movs	r3, #1
 80015d8:	46c3      	mov	fp, r8
 80015da:	f8cd 800c 	str.w	r8, [sp, #12]
 80015de:	4604      	mov	r4, r0
 80015e0:	9201      	str	r2, [sp, #4]
 80015e2:	f8c6 308c 	str.w	r3, [r6, #140]	; 0x8c
 80015e6:	46b8      	mov	r8, r7
  if (n > iqGetFullI(iqp)) {
 80015e8:	68a2      	ldr	r2, [r4, #8]
  s1 = (size_t)(iqp->q_top - iqp->q_rdptr);
 80015ea:	69a1      	ldr	r1, [r4, #24]
  if (n > iqGetFullI(iqp)) {
 80015ec:	455a      	cmp	r2, fp
  s1 = (size_t)(iqp->q_top - iqp->q_rdptr);
 80015ee:	6922      	ldr	r2, [r4, #16]
    n = iqGetFullI(iqp);
 80015f0:	bf34      	ite	cc
 80015f2:	68a5      	ldrcc	r5, [r4, #8]
 80015f4:	465d      	movcs	r5, fp
  s1 = (size_t)(iqp->q_top - iqp->q_rdptr);
 80015f6:	1a52      	subs	r2, r2, r1
  if (n < s1) {
 80015f8:	42aa      	cmp	r2, r5
 80015fa:	d85d      	bhi.n	80016b8 <iqReadTimeout+0x108>
  else if (n > s1) {
 80015fc:	d246      	bcs.n	800168c <iqReadTimeout+0xdc>
    memcpy((void *)bp, (void *)iqp->q_rdptr, s1);
 80015fe:	4640      	mov	r0, r8
    s2 = n - s1;
 8001600:	1aaf      	subs	r7, r5, r2
 8001602:	9202      	str	r2, [sp, #8]
    memcpy((void *)bp, (void *)iqp->q_rdptr, s1);
 8001604:	f7fe fe9e 	bl	8000344 <memcpy>
    memcpy((void *)bp, (void *)iqp->q_buffer, s2);
 8001608:	9a02      	ldr	r2, [sp, #8]
 800160a:	68e1      	ldr	r1, [r4, #12]
 800160c:	eb08 0002 	add.w	r0, r8, r2
 8001610:	463a      	mov	r2, r7
 8001612:	f7fe fe97 	bl	8000344 <memcpy>
    iqp->q_rdptr = iqp->q_buffer + s2;
 8001616:	68e2      	ldr	r2, [r4, #12]
 8001618:	443a      	add	r2, r7
    iqp->q_rdptr += n;
 800161a:	61a2      	str	r2, [r4, #24]
  iqp->q_counter -= n;
 800161c:	68a2      	ldr	r2, [r4, #8]
 800161e:	1b52      	subs	r2, r2, r5
 8001620:	60a2      	str	r2, [r4, #8]
    if (done == (size_t)0) {
 8001622:	2d00      	cmp	r5, #0
 8001624:	d038      	beq.n	8001698 <iqReadTimeout+0xe8>
      if (nfy != NULL) {
 8001626:	f1ba 0f00 	cmp.w	sl, #0
 800162a:	d001      	beq.n	8001630 <iqReadTimeout+0x80>
        nfy(iqp);
 800162c:	4620      	mov	r0, r4
 800162e:	47d0      	blx	sl
  if (unlikely((oip->dbg.isr_cnt != (cnt_t)0) ||
 8001630:	f8d6 2088 	ldr.w	r2, [r6, #136]	; 0x88
 8001634:	2a00      	cmp	r2, #0
 8001636:	d149      	bne.n	80016cc <iqReadTimeout+0x11c>
 8001638:	f8d6 108c 	ldr.w	r1, [r6, #140]	; 0x8c
 800163c:	2900      	cmp	r1, #0
 800163e:	dd45      	ble.n	80016cc <iqReadTimeout+0x11c>
  oip->dbg.lock_cnt = (cnt_t)0;
 8001640:	f8c6 208c 	str.w	r2, [r6, #140]	; 0x8c
 8001644:	f382 8811 	msr	BASEPRI, r2
 8001648:	9b01      	ldr	r3, [sp, #4]
      n  -= done;
 800164a:	ebab 0b05 	sub.w	fp, fp, r5
      bp += done;
 800164e:	44a8      	add	r8, r5
 8001650:	f383 8811 	msr	BASEPRI, r3
  if (unlikely((oip->dbg.isr_cnt != (cnt_t)0) ||
 8001654:	e9d6 2122 	ldrd	r2, r1, [r6, #136]	; 0x88
 8001658:	430a      	orrs	r2, r1
 800165a:	d134      	bne.n	80016c6 <iqReadTimeout+0x116>
  oip->dbg.lock_cnt = (cnt_t)1;
 800165c:	2301      	movs	r3, #1
 800165e:	f8c6 308c 	str.w	r3, [r6, #140]	; 0x8c
  while (n > 0U) {
 8001662:	f1bb 0f00 	cmp.w	fp, #0
 8001666:	d1bf      	bne.n	80015e8 <iqReadTimeout+0x38>
  if (unlikely((oip->dbg.isr_cnt != (cnt_t)0) ||
 8001668:	f8d6 2088 	ldr.w	r2, [r6, #136]	; 0x88
 800166c:	f8dd 800c 	ldr.w	r8, [sp, #12]
 8001670:	bb62      	cbnz	r2, 80016cc <iqReadTimeout+0x11c>
 8001672:	f8d6 108c 	ldr.w	r1, [r6, #140]	; 0x8c
 8001676:	2900      	cmp	r1, #0
 8001678:	dd28      	ble.n	80016cc <iqReadTimeout+0x11c>
  oip->dbg.lock_cnt = (cnt_t)0;
 800167a:	f8c6 208c 	str.w	r2, [r6, #140]	; 0x8c
 800167e:	f382 8811 	msr	BASEPRI, r2
}
 8001682:	eba8 000b 	sub.w	r0, r8, fp
 8001686:	b005      	add	sp, #20
 8001688:	e8bd 8ff0 	ldmia.w	sp!, {r4, r5, r6, r7, r8, r9, sl, fp, pc}
    memcpy((void *)bp, (void *)iqp->q_rdptr, n);
 800168c:	462a      	mov	r2, r5
 800168e:	4640      	mov	r0, r8
 8001690:	f7fe fe58 	bl	8000344 <memcpy>
    iqp->q_rdptr = iqp->q_buffer;
 8001694:	68e2      	ldr	r2, [r4, #12]
 8001696:	e7c0      	b.n	800161a <iqReadTimeout+0x6a>
  return __sch_get_currthread();
 8001698:	68f2      	ldr	r2, [r6, #12]
  if (unlikely(TIME_IMMEDIATE == timeout)) {
 800169a:	f1b9 0f00 	cmp.w	r9, #0
 800169e:	d0e3      	beq.n	8001668 <iqReadTimeout+0xb8>
  p->prev       = qp->prev;
 80016a0:	6861      	ldr	r1, [r4, #4]
 80016a2:	6051      	str	r1, [r2, #4]
  p->next       = qp;
 80016a4:	6014      	str	r4, [r2, #0]
  return chSchGoSleepTimeoutS(CH_STATE_QUEUED, timeout);
 80016a6:	2004      	movs	r0, #4
  p->prev->next = p;
 80016a8:	600a      	str	r2, [r1, #0]
  qp->prev      = p;
 80016aa:	6062      	str	r2, [r4, #4]
 80016ac:	4649      	mov	r1, r9
 80016ae:	f7ff fedf 	bl	8001470 <chSchGoSleepTimeoutS>
      if (msg != MSG_OK) {
 80016b2:	2800      	cmp	r0, #0
 80016b4:	d098      	beq.n	80015e8 <iqReadTimeout+0x38>
 80016b6:	e7d7      	b.n	8001668 <iqReadTimeout+0xb8>
    memcpy((void *)bp, (void *)iqp->q_rdptr, n);
 80016b8:	462a      	mov	r2, r5
 80016ba:	4640      	mov	r0, r8
 80016bc:	f7fe fe42 	bl	8000344 <memcpy>
    iqp->q_rdptr += n;
 80016c0:	69a2      	ldr	r2, [r4, #24]
 80016c2:	442a      	add	r2, r5
 80016c4:	e7a9      	b.n	800161a <iqReadTimeout+0x6a>
    chSysHalt("SV#4");
 80016c6:	4805      	ldr	r0, [pc, #20]	; (80016dc <iqReadTimeout+0x12c>)
 80016c8:	f7ff fa82 	bl	8000bd0 <chSysHalt>
    chSysHalt("SV#5");
 80016cc:	4804      	ldr	r0, [pc, #16]	; (80016e0 <iqReadTimeout+0x130>)
 80016ce:	f7ff fa7f 	bl	8000bd0 <chSysHalt>
  osalDbgCheck(n > 0U);
 80016d2:	4804      	ldr	r0, [pc, #16]	; (80016e4 <iqReadTimeout+0x134>)
 80016d4:	f7ff fa7c 	bl	8000bd0 <chSysHalt>
 80016d8:	200009f0 	.word	0x200009f0
 80016dc:	08004c98 	.word	0x08004c98
 80016e0:	08004cc0 	.word	0x08004cc0
 80016e4:	08004e44 	.word	0x08004e44
	...

080016f0 <_read>:
  return iqReadTimeout(&((SerialDriver *)ip)->iqueue, bp,
 80016f0:	f04f 33ff 	mov.w	r3, #4294967295
 80016f4:	300c      	adds	r0, #12
 80016f6:	f7ff bf5b 	b.w	80015b0 <iqReadTimeout>
 80016fa:	bf00      	nop
 80016fc:	0000      	movs	r0, r0
	...

08001700 <_readt>:
  return iqReadTimeout(&((SerialDriver *)ip)->iqueue, bp, n, timeout);
 8001700:	300c      	adds	r0, #12
 8001702:	f7ff bf55 	b.w	80015b0 <iqReadTimeout>
 8001706:	bf00      	nop
	...

08001710 <iqGetTimeout>:
msg_t iqGetTimeout(input_queue_t *iqp, sysinterval_t timeout) {
 8001710:	b570      	push	{r4, r5, r6, lr}
 8001712:	2330      	movs	r3, #48	; 0x30
 8001714:	f383 8811 	msr	BASEPRI, r3
  if (unlikely((oip->dbg.isr_cnt != (cnt_t)0) ||
 8001718:	4e26      	ldr	r6, [pc, #152]	; (80017b4 <iqGetTimeout+0xa4>)
 800171a:	e9d6 3222 	ldrd	r3, r2, [r6, #136]	; 0x88
 800171e:	4313      	orrs	r3, r2
 8001720:	d144      	bne.n	80017ac <iqGetTimeout+0x9c>
  oip->dbg.lock_cnt = (cnt_t)1;
 8001722:	2301      	movs	r3, #1
 8001724:	4604      	mov	r4, r0
 8001726:	460d      	mov	r5, r1
 8001728:	f8c6 308c 	str.w	r3, [r6, #140]	; 0x8c
}
 800172c:	e00a      	b.n	8001744 <iqGetTimeout+0x34>
  p->prev       = qp->prev;
 800172e:	6862      	ldr	r2, [r4, #4]
 8001730:	4629      	mov	r1, r5
 8001732:	e9c3 4200 	strd	r4, r2, [r3]
 8001736:	2004      	movs	r0, #4
  p->prev->next = p;
 8001738:	6013      	str	r3, [r2, #0]
  qp->prev      = p;
 800173a:	6063      	str	r3, [r4, #4]
 800173c:	f7ff fe98 	bl	8001470 <chSchGoSleepTimeoutS>
    if (msg < MSG_OK) {
 8001740:	2800      	cmp	r0, #0
 8001742:	db06      	blt.n	8001752 <iqGetTimeout+0x42>
  while (iqIsEmptyI(iqp)) {
 8001744:	68a3      	ldr	r3, [r4, #8]
 8001746:	b983      	cbnz	r3, 800176a <iqGetTimeout+0x5a>
 8001748:	68f3      	ldr	r3, [r6, #12]
  if (unlikely(TIME_IMMEDIATE == timeout)) {
 800174a:	2d00      	cmp	r5, #0
 800174c:	d1ef      	bne.n	800172e <iqGetTimeout+0x1e>
    return MSG_TIMEOUT;
 800174e:	f04f 30ff 	mov.w	r0, #4294967295
  if (unlikely((oip->dbg.isr_cnt != (cnt_t)0) ||
 8001752:	f8d6 3088 	ldr.w	r3, [r6, #136]	; 0x88
 8001756:	bb33      	cbnz	r3, 80017a6 <iqGetTimeout+0x96>
 8001758:	f8d6 208c 	ldr.w	r2, [r6, #140]	; 0x8c
 800175c:	2a00      	cmp	r2, #0
 800175e:	dd22      	ble.n	80017a6 <iqGetTimeout+0x96>
  oip->dbg.lock_cnt = (cnt_t)0;
 8001760:	f8c6 308c 	str.w	r3, [r6, #140]	; 0x8c
 8001764:	f383 8811 	msr	BASEPRI, r3
}
 8001768:	bd70      	pop	{r4, r5, r6, pc}
  iqp->q_counter--;
 800176a:	68a3      	ldr	r3, [r4, #8]
  b = *iqp->q_rdptr++;
 800176c:	69a1      	ldr	r1, [r4, #24]
  iqp->q_counter--;
 800176e:	3b01      	subs	r3, #1
 8001770:	60a3      	str	r3, [r4, #8]
  if (iqp->q_rdptr >= iqp->q_top) {
 8001772:	6923      	ldr	r3, [r4, #16]
  b = *iqp->q_rdptr++;
 8001774:	1c4a      	adds	r2, r1, #1
  if (iqp->q_rdptr >= iqp->q_top) {
 8001776:	429a      	cmp	r2, r3
    iqp->q_rdptr = iqp->q_buffer;
 8001778:	bf28      	it	cs
 800177a:	68e3      	ldrcs	r3, [r4, #12]
  b = *iqp->q_rdptr++;
 800177c:	61a2      	str	r2, [r4, #24]
 800177e:	780d      	ldrb	r5, [r1, #0]
    iqp->q_rdptr = iqp->q_buffer;
 8001780:	bf28      	it	cs
 8001782:	61a3      	strcs	r3, [r4, #24]
  if (iqp->q_notify != NULL) {
 8001784:	69e3      	ldr	r3, [r4, #28]
 8001786:	b10b      	cbz	r3, 800178c <iqGetTimeout+0x7c>
    iqp->q_notify(iqp);
 8001788:	4620      	mov	r0, r4
 800178a:	4798      	blx	r3
  if (unlikely((oip->dbg.isr_cnt != (cnt_t)0) ||
 800178c:	f8d6 3088 	ldr.w	r3, [r6, #136]	; 0x88
 8001790:	b94b      	cbnz	r3, 80017a6 <iqGetTimeout+0x96>
 8001792:	f8d6 208c 	ldr.w	r2, [r6, #140]	; 0x8c
 8001796:	2a00      	cmp	r2, #0
 8001798:	dd05      	ble.n	80017a6 <iqGetTimeout+0x96>
  oip->dbg.lock_cnt = (cnt_t)0;
 800179a:	f8c6 308c 	str.w	r3, [r6, #140]	; 0x8c
 800179e:	f383 8811 	msr	BASEPRI, r3
  return (msg_t)b;
 80017a2:	4628      	mov	r0, r5
}
 80017a4:	bd70      	pop	{r4, r5, r6, pc}
    chSysHalt("SV#5");
 80017a6:	4804      	ldr	r0, [pc, #16]	; (80017b8 <iqGetTimeout+0xa8>)
 80017a8:	f7ff fa12 	bl	8000bd0 <chSysHalt>
    chSysHalt("SV#4");
 80017ac:	4803      	ldr	r0, [pc, #12]	; (80017bc <iqGetTimeout+0xac>)
 80017ae:	f7ff fa0f 	bl	8000bd0 <chSysHalt>
 80017b2:	bf00      	nop
 80017b4:	200009f0 	.word	0x200009f0
 80017b8:	08004cc0 	.word	0x08004cc0
 80017bc:	08004c98 	.word	0x08004c98

080017c0 <_get>:
  return iqGetTimeout(&((SerialDriver *)ip)->iqueue, TIME_INFINITE);
 80017c0:	f04f 31ff 	mov.w	r1, #4294967295
 80017c4:	300c      	adds	r0, #12
 80017c6:	f7ff bfa3 	b.w	8001710 <iqGetTimeout>
 80017ca:	bf00      	nop
 80017cc:	0000      	movs	r0, r0
	...

080017d0 <_gett>:
  return iqGetTimeout(&((SerialDriver *)ip)->iqueue, timeout);
 80017d0:	300c      	adds	r0, #12
 80017d2:	f7ff bf9d 	b.w	8001710 <iqGetTimeout>
 80017d6:	bf00      	nop
	...

080017e0 <oqPutTimeout>:
msg_t oqPutTimeout(output_queue_t *oqp, uint8_t b, sysinterval_t timeout) {
 80017e0:	b5f8      	push	{r3, r4, r5, r6, r7, lr}
 80017e2:	4615      	mov	r5, r2
 80017e4:	2330      	movs	r3, #48	; 0x30
 80017e6:	f383 8811 	msr	BASEPRI, r3
  if (unlikely((oip->dbg.isr_cnt != (cnt_t)0) ||
 80017ea:	4f26      	ldr	r7, [pc, #152]	; (8001884 <oqPutTimeout+0xa4>)
 80017ec:	e9d7 3222 	ldrd	r3, r2, [r7, #136]	; 0x88
 80017f0:	4313      	orrs	r3, r2
 80017f2:	d143      	bne.n	800187c <oqPutTimeout+0x9c>
  oip->dbg.lock_cnt = (cnt_t)1;
 80017f4:	2301      	movs	r3, #1
 80017f6:	4604      	mov	r4, r0
 80017f8:	460e      	mov	r6, r1
 80017fa:	f8c7 308c 	str.w	r3, [r7, #140]	; 0x8c
}
 80017fe:	e00a      	b.n	8001816 <oqPutTimeout+0x36>
  p->prev       = qp->prev;
 8001800:	6860      	ldr	r0, [r4, #4]
  return chSchGoSleepTimeoutS(CH_STATE_QUEUED, timeout);
 8001802:	4629      	mov	r1, r5
 8001804:	e9c3 4000 	strd	r4, r0, [r3]
  p->prev->next = p;
 8001808:	6003      	str	r3, [r0, #0]
 800180a:	2004      	movs	r0, #4
  qp->prev      = p;
 800180c:	6063      	str	r3, [r4, #4]
 800180e:	f7ff fe2f 	bl	8001470 <chSchGoSleepTimeoutS>
    if (msg < MSG_OK) {
 8001812:	2800      	cmp	r0, #0
 8001814:	db06      	blt.n	8001824 <oqPutTimeout+0x44>
  while (oqIsFullI(oqp)) {
 8001816:	68a3      	ldr	r3, [r4, #8]
 8001818:	b983      	cbnz	r3, 800183c <oqPutTimeout+0x5c>
 800181a:	68fb      	ldr	r3, [r7, #12]
  if (unlikely(TIME_IMMEDIATE == timeout)) {
 800181c:	2d00      	cmp	r5, #0
 800181e:	d1ef      	bne.n	8001800 <oqPutTimeout+0x20>
    return MSG_TIMEOUT;
 8001820:	f04f 30ff 	mov.w	r0, #4294967295
  if (unlikely((oip->dbg.isr_cnt != (cnt_t)0) ||
 8001824:	f8d7 3088 	ldr.w	r3, [r7, #136]	; 0x88
 8001828:	bb2b      	cbnz	r3, 8001876 <oqPutTimeout+0x96>
 800182a:	f8d7 208c 	ldr.w	r2, [r7, #140]	; 0x8c
 800182e:	2a00      	cmp	r2, #0
 8001830:	dd21      	ble.n	8001876 <oqPutTimeout+0x96>
  oip->dbg.lock_cnt = (cnt_t)0;
 8001832:	f8c7 308c 	str.w	r3, [r7, #140]	; 0x8c
 8001836:	f383 8811 	msr	BASEPRI, r3
}
 800183a:	bdf8      	pop	{r3, r4, r5, r6, r7, pc}
  oqp->q_counter--;
 800183c:	68a3      	ldr	r3, [r4, #8]
  *oqp->q_wrptr++ = b;
 800183e:	6962      	ldr	r2, [r4, #20]
  oqp->q_counter--;
 8001840:	3b01      	subs	r3, #1
 8001842:	60a3      	str	r3, [r4, #8]
  *oqp->q_wrptr++ = b;
 8001844:	1c53      	adds	r3, r2, #1
 8001846:	6163      	str	r3, [r4, #20]
 8001848:	7016      	strb	r6, [r2, #0]
  if (oqp->q_wrptr >= oqp->q_top) {
 800184a:	e9d4 3204 	ldrd	r3, r2, [r4, #16]
 800184e:	429a      	cmp	r2, r3
    oqp->q_wrptr = oqp->q_buffer;
 8001850:	bf24      	itt	cs
 8001852:	68e3      	ldrcs	r3, [r4, #12]
 8001854:	6163      	strcs	r3, [r4, #20]
  if (oqp->q_notify != NULL) {
 8001856:	69e3      	ldr	r3, [r4, #28]
 8001858:	b10b      	cbz	r3, 800185e <oqPutTimeout+0x7e>
    oqp->q_notify(oqp);
 800185a:	4620      	mov	r0, r4
 800185c:	4798      	blx	r3
  if (unlikely((oip->dbg.isr_cnt != (cnt_t)0) ||
 800185e:	f8d7 0088 	ldr.w	r0, [r7, #136]	; 0x88
 8001862:	b940      	cbnz	r0, 8001876 <oqPutTimeout+0x96>
 8001864:	f8d7 308c 	ldr.w	r3, [r7, #140]	; 0x8c
 8001868:	2b00      	cmp	r3, #0
 800186a:	dd04      	ble.n	8001876 <oqPutTimeout+0x96>
  oip->dbg.lock_cnt = (cnt_t)0;
 800186c:	f8c7 008c 	str.w	r0, [r7, #140]	; 0x8c
 8001870:	f380 8811 	msr	BASEPRI, r0
}
 8001874:	bdf8      	pop	{r3, r4, r5, r6, r7, pc}
    chSysHalt("SV#5");
 8001876:	4804      	ldr	r0, [pc, #16]	; (8001888 <oqPutTimeout+0xa8>)
 8001878:	f7ff f9aa 	bl	8000bd0 <chSysHalt>
    chSysHalt("SV#4");
 800187c:	4803      	ldr	r0, [pc, #12]	; (800188c <oqPutTimeout+0xac>)
 800187e:	f7ff f9a7 	bl	8000bd0 <chSysHalt>
 8001882:	bf00      	nop
 8001884:	200009f0 	.word	0x200009f0
 8001888:	08004cc0 	.word	0x08004cc0
 800188c:	08004c98 	.word	0x08004c98

08001890 <_put>:
  return oqPutTimeout(&((SerialDriver *)ip)->oqueue, b, TIME_INFINITE);
 8001890:	f04f 32ff 	mov.w	r2, #4294967295
 8001894:	3030      	adds	r0, #48	; 0x30
 8001896:	f7ff bfa3 	b.w	80017e0 <oqPutTimeout>
 800189a:	bf00      	nop
 800189c:	0000      	movs	r0, r0
	...

080018a0 <_putt>:
  return oqPutTimeout(&((SerialDriver *)ip)->oqueue, b, timeout);
 80018a0:	3030      	adds	r0, #48	; 0x30
 80018a2:	f7ff bf9d 	b.w	80017e0 <oqPutTimeout>
 80018a6:	bf00      	nop
	...

080018b0 <oqWriteTimeout>:
 * @return              The number of bytes effectively transferred.
 *
 * @api
 */
size_t oqWriteTimeout(output_queue_t *oqp, const uint8_t *bp,
                      size_t n, sysinterval_t timeout) {
 80018b0:	e92d 4ff0 	stmdb	sp!, {r4, r5, r6, r7, r8, r9, sl, fp, lr}
 80018b4:	b085      	sub	sp, #20
  qnotify_t nfy = oqp->q_notify;
 80018b6:	f8d0 b01c 	ldr.w	fp, [r0, #28]
                      size_t n, sysinterval_t timeout) {
 80018ba:	9302      	str	r3, [sp, #8]
  size_t max = n;

  osalDbgCheck(n > 0U);
 80018bc:	2a00      	cmp	r2, #0
 80018be:	f000 8081 	beq.w	80019c4 <oqWriteTimeout+0x114>
 80018c2:	4691      	mov	r9, r2
 80018c4:	4688      	mov	r8, r1
 80018c6:	2230      	movs	r2, #48	; 0x30
 80018c8:	f382 8811 	msr	BASEPRI, r2
  if (unlikely((oip->dbg.isr_cnt != (cnt_t)0) ||
 80018cc:	4e3f      	ldr	r6, [pc, #252]	; (80019cc <oqWriteTimeout+0x11c>)
 80018ce:	e9d6 3122 	ldrd	r3, r1, [r6, #136]	; 0x88
 80018d2:	430b      	orrs	r3, r1
 80018d4:	d170      	bne.n	80019b8 <oqWriteTimeout+0x108>
  oip->dbg.lock_cnt = (cnt_t)1;
 80018d6:	2301      	movs	r3, #1
 80018d8:	4604      	mov	r4, r0
 80018da:	9201      	str	r2, [sp, #4]
 80018dc:	f8c6 308c 	str.w	r3, [r6, #140]	; 0x8c
 80018e0:	46ca      	mov	sl, r9
  if (n > oqGetEmptyI(oqp)) {
 80018e2:	68a3      	ldr	r3, [r4, #8]
  s1 = (size_t)(oqp->q_top - oqp->q_wrptr);
 80018e4:	e9d4 7004 	ldrd	r7, r0, [r4, #16]
  if (n > oqGetEmptyI(oqp)) {
 80018e8:	4553      	cmp	r3, sl
    n = oqGetEmptyI(oqp);
 80018ea:	bf34      	ite	cc
 80018ec:	68a5      	ldrcc	r5, [r4, #8]
 80018ee:	4655      	movcs	r5, sl
  s1 = (size_t)(oqp->q_top - oqp->q_wrptr);
 80018f0:	1a3f      	subs	r7, r7, r0
  if (n < s1) {
 80018f2:	42af      	cmp	r7, r5
 80018f4:	d859      	bhi.n	80019aa <oqWriteTimeout+0xfa>
  else if (n > s1) {
 80018f6:	d243      	bcs.n	8001980 <oqWriteTimeout+0xd0>
    memcpy((void *)oqp->q_wrptr, (const void *)bp, s1);
 80018f8:	463a      	mov	r2, r7
 80018fa:	4641      	mov	r1, r8
 80018fc:	f7fe fd22 	bl	8000344 <memcpy>
    s2 = n - s1;
 8001900:	1bea      	subs	r2, r5, r7
    memcpy((void *)oqp->q_buffer, (const void *)bp, s2);
 8001902:	68e0      	ldr	r0, [r4, #12]
 8001904:	9203      	str	r2, [sp, #12]
 8001906:	eb08 0107 	add.w	r1, r8, r7
 800190a:	f7fe fd1b 	bl	8000344 <memcpy>
    oqp->q_wrptr = oqp->q_buffer + s2;
 800190e:	68e3      	ldr	r3, [r4, #12]
 8001910:	9a03      	ldr	r2, [sp, #12]
 8001912:	441a      	add	r2, r3
  oqp->q_counter -= n;
 8001914:	68a3      	ldr	r3, [r4, #8]
    oqp->q_wrptr += n;
 8001916:	6162      	str	r2, [r4, #20]
  oqp->q_counter -= n;
 8001918:	1b5b      	subs	r3, r3, r5
 800191a:	60a3      	str	r3, [r4, #8]

  while (n > 0U) {
    size_t done;

    done = oq_write(oqp, bp, n);
    if (done == (size_t)0) {
 800191c:	b3b5      	cbz	r5, 800198c <oqWriteTimeout+0xdc>
      }
    }
    else {
      /* Inform the low side that the queue has at least one character
         available.*/
      if (nfy != NULL) {
 800191e:	f1bb 0f00 	cmp.w	fp, #0
 8001922:	d001      	beq.n	8001928 <oqWriteTimeout+0x78>
        nfy(oqp);
 8001924:	4620      	mov	r0, r4
 8001926:	47d8      	blx	fp
  if (unlikely((oip->dbg.isr_cnt != (cnt_t)0) ||
 8001928:	f8d6 3088 	ldr.w	r3, [r6, #136]	; 0x88
 800192c:	2b00      	cmp	r3, #0
 800192e:	d146      	bne.n	80019be <oqWriteTimeout+0x10e>
 8001930:	f8d6 208c 	ldr.w	r2, [r6, #140]	; 0x8c
 8001934:	2a00      	cmp	r2, #0
 8001936:	dd42      	ble.n	80019be <oqWriteTimeout+0x10e>
  oip->dbg.lock_cnt = (cnt_t)0;
 8001938:	f8c6 308c 	str.w	r3, [r6, #140]	; 0x8c
 800193c:	f383 8811 	msr	BASEPRI, r3
 8001940:	9b01      	ldr	r3, [sp, #4]
      }

      /* Giving a preemption chance in a controlled point.*/
      osalSysUnlock();

      n  -= done;
 8001942:	ebaa 0a05 	sub.w	sl, sl, r5
      bp += done;
 8001946:	44a8      	add	r8, r5
 8001948:	f383 8811 	msr	BASEPRI, r3
  if (unlikely((oip->dbg.isr_cnt != (cnt_t)0) ||
 800194c:	e9d6 3222 	ldrd	r3, r2, [r6, #136]	; 0x88
 8001950:	4313      	orrs	r3, r2
 8001952:	d131      	bne.n	80019b8 <oqWriteTimeout+0x108>
  oip->dbg.lock_cnt = (cnt_t)1;
 8001954:	2301      	movs	r3, #1
 8001956:	f8c6 308c 	str.w	r3, [r6, #140]	; 0x8c
  while (n > 0U) {
 800195a:	f1ba 0f00 	cmp.w	sl, #0
 800195e:	d1c0      	bne.n	80018e2 <oqWriteTimeout+0x32>
  if (unlikely((oip->dbg.isr_cnt != (cnt_t)0) ||
 8001960:	f8d6 2088 	ldr.w	r2, [r6, #136]	; 0x88
 8001964:	bb5a      	cbnz	r2, 80019be <oqWriteTimeout+0x10e>
 8001966:	f8d6 108c 	ldr.w	r1, [r6, #140]	; 0x8c
 800196a:	2900      	cmp	r1, #0
 800196c:	dd27      	ble.n	80019be <oqWriteTimeout+0x10e>
  oip->dbg.lock_cnt = (cnt_t)0;
 800196e:	f8c6 208c 	str.w	r2, [r6, #140]	; 0x8c
 8001972:	f382 8811 	msr	BASEPRI, r2
    }
  }

  osalSysUnlock();
  return max - n;
}
 8001976:	eba9 000a 	sub.w	r0, r9, sl
 800197a:	b005      	add	sp, #20
 800197c:	e8bd 8ff0 	ldmia.w	sp!, {r4, r5, r6, r7, r8, r9, sl, fp, pc}
    memcpy((void *)oqp->q_wrptr, (const void *)bp, n);
 8001980:	462a      	mov	r2, r5
 8001982:	4641      	mov	r1, r8
 8001984:	f7fe fcde 	bl	8000344 <memcpy>
    oqp->q_wrptr = oqp->q_buffer;
 8001988:	68e2      	ldr	r2, [r4, #12]
 800198a:	e7c3      	b.n	8001914 <oqWriteTimeout+0x64>
  if (unlikely(TIME_IMMEDIATE == timeout)) {
 800198c:	9902      	ldr	r1, [sp, #8]
 800198e:	68f3      	ldr	r3, [r6, #12]
 8001990:	2900      	cmp	r1, #0
 8001992:	d0e5      	beq.n	8001960 <oqWriteTimeout+0xb0>
  p->prev       = qp->prev;
 8001994:	6862      	ldr	r2, [r4, #4]
  p->next       = qp;
 8001996:	601c      	str	r4, [r3, #0]
  p->prev       = qp->prev;
 8001998:	605a      	str	r2, [r3, #4]
  return chSchGoSleepTimeoutS(CH_STATE_QUEUED, timeout);
 800199a:	2004      	movs	r0, #4
  p->prev->next = p;
 800199c:	6013      	str	r3, [r2, #0]
  qp->prev      = p;
 800199e:	6063      	str	r3, [r4, #4]
 80019a0:	f7ff fd66 	bl	8001470 <chSchGoSleepTimeoutS>
      if (msg != MSG_OK) {
 80019a4:	2800      	cmp	r0, #0
 80019a6:	d09c      	beq.n	80018e2 <oqWriteTimeout+0x32>
 80019a8:	e7da      	b.n	8001960 <oqWriteTimeout+0xb0>
    memcpy((void *)oqp->q_wrptr, (const void *)bp, n);
 80019aa:	462a      	mov	r2, r5
 80019ac:	4641      	mov	r1, r8
 80019ae:	f7fe fcc9 	bl	8000344 <memcpy>
    oqp->q_wrptr += n;
 80019b2:	6962      	ldr	r2, [r4, #20]
 80019b4:	442a      	add	r2, r5
 80019b6:	e7ad      	b.n	8001914 <oqWriteTimeout+0x64>
    chSysHalt("SV#4");
 80019b8:	4805      	ldr	r0, [pc, #20]	; (80019d0 <oqWriteTimeout+0x120>)
 80019ba:	f7ff f909 	bl	8000bd0 <chSysHalt>
    chSysHalt("SV#5");
 80019be:	4805      	ldr	r0, [pc, #20]	; (80019d4 <oqWriteTimeout+0x124>)
 80019c0:	f7ff f906 	bl	8000bd0 <chSysHalt>
  osalDbgCheck(n > 0U);
 80019c4:	4804      	ldr	r0, [pc, #16]	; (80019d8 <oqWriteTimeout+0x128>)
 80019c6:	f7ff f903 	bl	8000bd0 <chSysHalt>
 80019ca:	bf00      	nop
 80019cc:	200009f0 	.word	0x200009f0
 80019d0:	08004c98 	.word	0x08004c98
 80019d4:	08004cc0 	.word	0x08004cc0
 80019d8:	08004dfc 	.word	0x08004dfc
 80019dc:	00000000 	.word	0x00000000

080019e0 <_write>:
  return oqWriteTimeout(&((SerialDriver *)ip)->oqueue, bp,
 80019e0:	f04f 33ff 	mov.w	r3, #4294967295
 80019e4:	3030      	adds	r0, #48	; 0x30
 80019e6:	f7ff bf63 	b.w	80018b0 <oqWriteTimeout>
 80019ea:	bf00      	nop
 80019ec:	0000      	movs	r0, r0
	...

080019f0 <_writet>:
  return oqWriteTimeout(&((SerialDriver *)ip)->oqueue, bp, n, timeout);
 80019f0:	3030      	adds	r0, #48	; 0x30
 80019f2:	f7ff bf5d 	b.w	80018b0 <oqWriteTimeout>
 80019f6:	bf00      	nop
	...

08001a00 <chThdSleep>:
void chThdSleep(sysinterval_t time) {
 8001a00:	b510      	push	{r4, lr}
 8001a02:	2330      	movs	r3, #48	; 0x30
 8001a04:	f383 8811 	msr	BASEPRI, r3
  if (unlikely((oip->dbg.isr_cnt != (cnt_t)0) ||
 8001a08:	4c10      	ldr	r4, [pc, #64]	; (8001a4c <chThdSleep+0x4c>)
 8001a0a:	e9d4 3222 	ldrd	r3, r2, [r4, #136]	; 0x88
 8001a0e:	4313      	orrs	r3, r2
 8001a10:	d113      	bne.n	8001a3a <chThdSleep+0x3a>
  oip->dbg.lock_cnt = (cnt_t)1;
 8001a12:	2301      	movs	r3, #1
 8001a14:	4601      	mov	r1, r0
 8001a16:	f8c4 308c 	str.w	r3, [r4, #140]	; 0x8c
  chDbgCheck(ticks != TIME_IMMEDIATE);
 8001a1a:	b1a0      	cbz	r0, 8001a46 <chThdSleep+0x46>
  (void) chSchGoSleepTimeoutS(CH_STATE_SLEEPING, ticks);
 8001a1c:	2008      	movs	r0, #8
 8001a1e:	f7ff fd27 	bl	8001470 <chSchGoSleepTimeoutS>
  if (unlikely((oip->dbg.isr_cnt != (cnt_t)0) ||
 8001a22:	f8d4 3088 	ldr.w	r3, [r4, #136]	; 0x88
 8001a26:	b95b      	cbnz	r3, 8001a40 <chThdSleep+0x40>
 8001a28:	f8d4 208c 	ldr.w	r2, [r4, #140]	; 0x8c
 8001a2c:	2a00      	cmp	r2, #0
 8001a2e:	dd07      	ble.n	8001a40 <chThdSleep+0x40>
  oip->dbg.lock_cnt = (cnt_t)0;
 8001a30:	f8c4 308c 	str.w	r3, [r4, #140]	; 0x8c
 8001a34:	f383 8811 	msr	BASEPRI, r3
}
 8001a38:	bd10      	pop	{r4, pc}
    chSysHalt("SV#4");
 8001a3a:	4805      	ldr	r0, [pc, #20]	; (8001a50 <chThdSleep+0x50>)
 8001a3c:	f7ff f8c8 	bl	8000bd0 <chSysHalt>
    chSysHalt("SV#5");
 8001a40:	4804      	ldr	r0, [pc, #16]	; (8001a54 <chThdSleep+0x54>)
 8001a42:	f7ff f8c5 	bl	8000bd0 <chSysHalt>
  chDbgCheck(ticks != TIME_IMMEDIATE);
 8001a46:	4804      	ldr	r0, [pc, #16]	; (8001a58 <chThdSleep+0x58>)
 8001a48:	f7ff f8c2 	bl	8000bd0 <chSysHalt>
 8001a4c:	200009f0 	.word	0x200009f0
 8001a50:	08004c98 	.word	0x08004c98
 8001a54:	08004cc0 	.word	0x08004cc0
 8001a58:	08004e18 	.word	0x08004e18
 8001a5c:	00000000 	.word	0x00000000

08001a60 <adf_write_reg>:
 *
 * @api
 */
//void spiSend(SPIDriver *spip, size_t n, const void *txbuf) {

void adf_write_reg(uint32_t data){
 8001a60:	e92d 43f8 	stmdb	sp!, {r3, r4, r5, r6, r7, r8, r9, lr}
    spiSend(&SPID2, 1, &temp);
  }
  spiUnselect(&SPID2);            // Slave Select deassertion.
  */

  palClearPad(GPIOB, GPIOB_ADF_DATA);
 8001a64:	4c4c      	ldr	r4, [pc, #304]	; (8001b98 <adf_write_reg+0x138>)
 8001a66:	f44f 4200 	mov.w	r2, #32768	; 0x8000
  palClearPad(GPIOB, GPIOB_ADF_CLK);
 8001a6a:	f44f 5500 	mov.w	r5, #8192	; 0x2000
  //myprintf("Bitbang adf_write_reg: 0x%08X\n", data);
  palClearPad(GPIOB, GPIOB_ADF_LE);           // Slave Select assertion.
 8001a6e:	f44f 5380 	mov.w	r3, #4096	; 0x1000
  palClearPad(GPIOB, GPIOB_ADF_DATA);
 8001a72:	8362      	strh	r2, [r4, #26]
void adf_write_reg(uint32_t data){
 8001a74:	4681      	mov	r9, r0
  palClearPad(GPIOB, GPIOB_ADF_CLK);
 8001a76:	8365      	strh	r5, [r4, #26]
  palClearPad(GPIOB, GPIOB_ADF_LE);           // Slave Select assertion.
 8001a78:	2718      	movs	r7, #24
 8001a7a:	8363      	strh	r3, [r4, #26]
   for(int i=3; i>=0; --i){
     uint8_t temp = data >> (i * 8);
 8001a7c:	fa29 f807 	lsr.w	r8, r9, r7
     //myprintf("adf_write_ byte: 0x%X\n",temp);

     //MSB first
     if(temp&0x80)  palSetPad(GPIOB, GPIOB_ADF_DATA);
 8001a80:	f018 0f80 	tst.w	r8, #128	; 0x80
 8001a84:	f44f 4300 	mov.w	r3, #32768	; 0x8000
 8001a88:	bf14      	ite	ne
 8001a8a:	8323      	strhne	r3, [r4, #24]
     else           palClearPad(GPIOB, GPIOB_ADF_DATA);
 8001a8c:	8363      	strheq	r3, [r4, #26]
     chThdSleepMilliseconds(1);
 8001a8e:	200a      	movs	r0, #10
 8001a90:	f7ff ffb6 	bl	8001a00 <chThdSleep>
     palSetPad(GPIOB, GPIOB_ADF_CLK);
     chThdSleepMilliseconds(1);
 8001a94:	200a      	movs	r0, #10
     palSetPad(GPIOB, GPIOB_ADF_CLK);
 8001a96:	8325      	strh	r5, [r4, #24]
     chThdSleepMilliseconds(1);
 8001a98:	f7ff ffb2 	bl	8001a00 <chThdSleep>
     palClearPad(GPIOB, GPIOB_ADF_CLK);

     if(temp&0x40)  palSetPad(GPIOB, GPIOB_ADF_DATA);
 8001a9c:	f018 0f40 	tst.w	r8, #64	; 0x40
 8001aa0:	f44f 4300 	mov.w	r3, #32768	; 0x8000
     palClearPad(GPIOB, GPIOB_ADF_CLK);
 8001aa4:	8365      	strh	r5, [r4, #26]
     else           palClearPad(GPIOB, GPIOB_ADF_DATA);
     chThdSleepMilliseconds(1);
 8001aa6:	f04f 000a 	mov.w	r0, #10
     if(temp&0x40)  palSetPad(GPIOB, GPIOB_ADF_DATA);
 8001aaa:	bf14      	ite	ne
 8001aac:	8323      	strhne	r3, [r4, #24]
     else           palClearPad(GPIOB, GPIOB_ADF_DATA);
 8001aae:	8363      	strheq	r3, [r4, #26]
     chThdSleepMilliseconds(1);
 8001ab0:	f7ff ffa6 	bl	8001a00 <chThdSleep>
     if(temp&0x40)  palSetPad(GPIOB, GPIOB_ADF_DATA);
 8001ab4:	fa5f f688 	uxtb.w	r6, r8
     palSetPad(GPIOB, GPIOB_ADF_CLK);
     chThdSleepMilliseconds(1);
 8001ab8:	200a      	movs	r0, #10
     palSetPad(GPIOB, GPIOB_ADF_CLK);
 8001aba:	8325      	strh	r5, [r4, #24]
     chThdSleepMilliseconds(1);
 8001abc:	f7ff ffa0 	bl	8001a00 <chThdSleep>
     palClearPad(GPIOB, GPIOB_ADF_CLK);

     if(temp&0x20)  palSetPad(GPIOB, GPIOB_ADF_DATA);
 8001ac0:	06b1      	lsls	r1, r6, #26
     palClearPad(GPIOB, GPIOB_ADF_CLK);
 8001ac2:	8365      	strh	r5, [r4, #26]
     if(temp&0x20)  palSetPad(GPIOB, GPIOB_ADF_DATA);
 8001ac4:	f44f 4800 	mov.w	r8, #32768	; 0x8000
     else           palClearPad(GPIOB, GPIOB_ADF_DATA);
     chThdSleepMilliseconds(1);
 8001ac8:	f04f 000a 	mov.w	r0, #10
     if(temp&0x20)  palSetPad(GPIOB, GPIOB_ADF_DATA);
 8001acc:	d557      	bpl.n	8001b7e <adf_write_reg+0x11e>
 8001ace:	f8a4 8018 	strh.w	r8, [r4, #24]
     chThdSleepMilliseconds(1);
 8001ad2:	f7ff ff95 	bl	8001a00 <chThdSleep>
     palSetPad(GPIOB, GPIOB_ADF_CLK);
 8001ad6:	8325      	strh	r5, [r4, #24]
     chThdSleepMilliseconds(1);
 8001ad8:	200a      	movs	r0, #10
 8001ada:	f7ff ff91 	bl	8001a00 <chThdSleep>
     palClearPad(GPIOB, GPIOB_ADF_CLK);
 8001ade:	8365      	strh	r5, [r4, #26]

     if(temp&0x20)  palSetPad(GPIOB, GPIOB_ADF_DATA);
 8001ae0:	f8a4 8018 	strh.w	r8, [r4, #24]
     else           palClearPad(GPIOB, GPIOB_ADF_DATA);
     chThdSleepMilliseconds(1);
 8001ae4:	200a      	movs	r0, #10
 8001ae6:	f7ff ff8b 	bl	8001a00 <chThdSleep>
     palSetPad(GPIOB, GPIOB_ADF_CLK);
     chThdSleepMilliseconds(1);
 8001aea:	200a      	movs	r0, #10
     palSetPad(GPIOB, GPIOB_ADF_CLK);
 8001aec:	8325      	strh	r5, [r4, #24]
     chThdSleepMilliseconds(1);
 8001aee:	f7ff ff87 	bl	8001a00 <chThdSleep>
     palClearPad(GPIOB, GPIOB_ADF_CLK);

     if(temp&0x08)  palSetPad(GPIOB, GPIOB_ADF_DATA);
 8001af2:	f44f 4300 	mov.w	r3, #32768	; 0x8000
 8001af6:	0732      	lsls	r2, r6, #28
     palClearPad(GPIOB, GPIOB_ADF_CLK);
 8001af8:	8365      	strh	r5, [r4, #26]
     else           palClearPad(GPIOB, GPIOB_ADF_DATA);
     chThdSleepMilliseconds(1);
 8001afa:	f04f 000a 	mov.w	r0, #10
     if(temp&0x08)  palSetPad(GPIOB, GPIOB_ADF_DATA);
 8001afe:	bf4c      	ite	mi
 8001b00:	8323      	strhmi	r3, [r4, #24]
     else           palClearPad(GPIOB, GPIOB_ADF_DATA);
 8001b02:	8363      	strhpl	r3, [r4, #26]
     chThdSleepMilliseconds(1);
 8001b04:	f7ff ff7c 	bl	8001a00 <chThdSleep>
     palSetPad(GPIOB, GPIOB_ADF_CLK);
     chThdSleepMilliseconds(1);
 8001b08:	200a      	movs	r0, #10
     palSetPad(GPIOB, GPIOB_ADF_CLK);
 8001b0a:	8325      	strh	r5, [r4, #24]
     chThdSleepMilliseconds(1);
 8001b0c:	f7ff ff78 	bl	8001a00 <chThdSleep>
     palClearPad(GPIOB, GPIOB_ADF_CLK);

     if(temp&0x04)  palSetPad(GPIOB, GPIOB_ADF_DATA);
 8001b10:	0770      	lsls	r0, r6, #29
 8001b12:	f44f 4300 	mov.w	r3, #32768	; 0x8000
     palClearPad(GPIOB, GPIOB_ADF_CLK);
 8001b16:	8365      	strh	r5, [r4, #26]
     else           palClearPad(GPIOB, GPIOB_ADF_DATA);
     chThdSleepMilliseconds(1);
 8001b18:	f04f 000a 	mov.w	r0, #10
     if(temp&0x04)  palSetPad(GPIOB, GPIOB_ADF_DATA);
 8001b1c:	bf4c      	ite	mi
 8001b1e:	8323      	strhmi	r3, [r4, #24]
     else           palClearPad(GPIOB, GPIOB_ADF_DATA);
 8001b20:	8363      	strhpl	r3, [r4, #26]
     chThdSleepMilliseconds(1);
 8001b22:	f7ff ff6d 	bl	8001a00 <chThdSleep>
     palSetPad(GPIOB, GPIOB_ADF_CLK);
     chThdSleepMilliseconds(1);
 8001b26:	200a      	movs	r0, #10
     palSetPad(GPIOB, GPIOB_ADF_CLK);
 8001b28:	8325      	strh	r5, [r4, #24]
     chThdSleepMilliseconds(1);
 8001b2a:	f7ff ff69 	bl	8001a00 <chThdSleep>
     palClearPad(GPIOB, GPIOB_ADF_CLK);

     if(temp&0x02)  palSetPad(GPIOB, GPIOB_ADF_DATA);
 8001b2e:	f44f 4300 	mov.w	r3, #32768	; 0x8000
 8001b32:	07b1      	lsls	r1, r6, #30
     palClearPad(GPIOB, GPIOB_ADF_CLK);
 8001b34:	8365      	strh	r5, [r4, #26]
     else           palClearPad(GPIOB, GPIOB_ADF_DATA);
     chThdSleepMilliseconds(1);
 8001b36:	f04f 000a 	mov.w	r0, #10
     if(temp&0x02)  palSetPad(GPIOB, GPIOB_ADF_DATA);
 8001b3a:	bf4c      	ite	mi
 8001b3c:	8323      	strhmi	r3, [r4, #24]
     else           palClearPad(GPIOB, GPIOB_ADF_DATA);
 8001b3e:	8363      	strhpl	r3, [r4, #26]
     chThdSleepMilliseconds(1);
 8001b40:	f7ff ff5e 	bl	8001a00 <chThdSleep>
     palSetPad(GPIOB, GPIOB_ADF_CLK);
     chThdSleepMilliseconds(1);
 8001b44:	200a      	movs	r0, #10
     palSetPad(GPIOB, GPIOB_ADF_CLK);
 8001b46:	8325      	strh	r5, [r4, #24]
     chThdSleepMilliseconds(1);
 8001b48:	f7ff ff5a 	bl	8001a00 <chThdSleep>
     palClearPad(GPIOB, GPIOB_ADF_CLK);

     if(temp&0x01)  palSetPad(GPIOB, GPIOB_ADF_DATA);
 8001b4c:	07f2      	lsls	r2, r6, #31
 8001b4e:	f44f 4300 	mov.w	r3, #32768	; 0x8000
     palClearPad(GPIOB, GPIOB_ADF_CLK);
 8001b52:	8365      	strh	r5, [r4, #26]
     else           palClearPad(GPIOB, GPIOB_ADF_DATA);
     chThdSleepMilliseconds(1);
 8001b54:	f04f 000a 	mov.w	r0, #10
     if(temp&0x01)  palSetPad(GPIOB, GPIOB_ADF_DATA);
 8001b58:	bf4c      	ite	mi
 8001b5a:	8323      	strhmi	r3, [r4, #24]
     else           palClearPad(GPIOB, GPIOB_ADF_DATA);
 8001b5c:	8363      	strhpl	r3, [r4, #26]
     chThdSleepMilliseconds(1);
 8001b5e:	f7ff ff4f 	bl	8001a00 <chThdSleep>
   for(int i=3; i>=0; --i){
 8001b62:	3f08      	subs	r7, #8
     palSetPad(GPIOB, GPIOB_ADF_CLK);
 8001b64:	8325      	strh	r5, [r4, #24]
     chThdSleepMilliseconds(1);
 8001b66:	200a      	movs	r0, #10
 8001b68:	f7ff ff4a 	bl	8001a00 <chThdSleep>
   for(int i=3; i>=0; --i){
 8001b6c:	f117 0f08 	cmn.w	r7, #8
     palClearPad(GPIOB, GPIOB_ADF_CLK);
 8001b70:	8365      	strh	r5, [r4, #26]
   for(int i=3; i>=0; --i){
 8001b72:	d183      	bne.n	8001a7c <adf_write_reg+0x1c>
   }
   palSetPad(GPIOB, GPIOB_ADF_LE);             // Slave Select deassertion.
 8001b74:	f44f 5380 	mov.w	r3, #4096	; 0x1000
 8001b78:	8323      	strh	r3, [r4, #24]
}
 8001b7a:	e8bd 83f8 	ldmia.w	sp!, {r3, r4, r5, r6, r7, r8, r9, pc}
     else           palClearPad(GPIOB, GPIOB_ADF_DATA);
 8001b7e:	f8a4 801a 	strh.w	r8, [r4, #26]
     chThdSleepMilliseconds(1);
 8001b82:	f7ff ff3d 	bl	8001a00 <chThdSleep>
     palSetPad(GPIOB, GPIOB_ADF_CLK);
 8001b86:	8325      	strh	r5, [r4, #24]
     chThdSleepMilliseconds(1);
 8001b88:	200a      	movs	r0, #10
 8001b8a:	f7ff ff39 	bl	8001a00 <chThdSleep>
     palClearPad(GPIOB, GPIOB_ADF_CLK);
 8001b8e:	8365      	strh	r5, [r4, #26]
     else           palClearPad(GPIOB, GPIOB_ADF_DATA);
 8001b90:	f8a4 801a 	strh.w	r8, [r4, #26]
 8001b94:	e7a6      	b.n	8001ae4 <adf_write_reg+0x84>
 8001b96:	bf00      	nop
 8001b98:	40020400 	.word	0x40020400
 8001b9c:	00000000 	.word	0x00000000

08001ba0 <__port_irq_epilogue.part.0>:
#endif

/**
 * @brief   Exception exit redirection to @p __port_switch_from_isr().
 */
void __port_irq_epilogue(void) {
 8001ba0:	b410      	push	{r4}
     (defined (__FPU_USED   ) && (__FPU_USED    == 1U))     )
#if __has_builtin(__builtin_arm_get_fpscr) 
// Re-enable using built-in when GCC has been fixed
// || (__GNUC__ > 7) || (__GNUC__ == 7 && __GNUC_MINOR__ >= 2)
  /* see https://gcc.gnu.org/ml/gcc-patches/2017-04/msg00443.html */
  return __builtin_arm_get_fpscr();
 8001ba2:	eef1 3a10 	vmrs	r3, fpscr
  __ASM volatile ("MRS %0, psp"  : "=r" (result) );
 8001ba6:	f3ef 8309 	mrs	r3, PSP
    s_psp = __get_PSP();
#endif

    /* Adding an artificial exception return context, there is no need to
       populate it fully.*/
    s_psp -= sizeof (struct port_extctx);
 8001baa:	3b68      	subs	r3, #104	; 0x68

    /* The port_extctx structure is pointed by the S-PSP register.*/
    ectxp = (struct port_extctx *)s_psp;

    /* Setting up a fake XPSR register value.*/
    ectxp->xpsr = 0x01000000U;
 8001bac:	f04f 7180 	mov.w	r1, #16777216	; 0x1000000
#if CORTEX_USE_FPU == TRUE
    ectxp->fpscr = FPU->FPDSCR;
 8001bb0:	4a09      	ldr	r2, [pc, #36]	; (8001bd8 <__port_irq_epilogue.part.0+0x38>)
    ectxp->xpsr = 0x01000000U;
 8001bb2:	61d9      	str	r1, [r3, #28]
    ectxp->fpscr = FPU->FPDSCR;
 8001bb4:	6bd2      	ldr	r2, [r2, #60]	; 0x3c
 8001bb6:	661a      	str	r2, [r3, #96]	; 0x60
  __ASM volatile ("MSR psp, %0" : : "r" (topOfProcStack) : );
 8001bb8:	f383 8809 	msr	PSP, r3
 */
bool chSchIsPreemptionRequired(void) {
  os_instance_t *oip = currcore;
  thread_t *tp = __instance_get_currthread(oip);

  tprio_t p1 = firstprio(&oip->rlist.pqueue);
 8001bbc:	4907      	ldr	r1, [pc, #28]	; (8001bdc <__port_irq_epilogue.part.0+0x3c>)

    /* The exit sequence is different depending on if a preemption is
       required or not.*/
    if (chSchIsPreemptionRequired()) {
      /* Preemption is required we need to enforce a context switch.*/
      ectxp->pc = (uint32_t)__port_switch_from_isr;
 8001bbe:	4a08      	ldr	r2, [pc, #32]	; (8001be0 <__port_irq_epilogue.part.0+0x40>)
 8001bc0:	6808      	ldr	r0, [r1, #0]
  tprio_t p2 = tp->hdr.pqueue.prio;
 8001bc2:	68c9      	ldr	r1, [r1, #12]
    if (chSchIsPreemptionRequired()) {
 8001bc4:	6884      	ldr	r4, [r0, #8]
 8001bc6:	6888      	ldr	r0, [r1, #8]
      ectxp->pc = (uint32_t)__port_switch_from_isr;
 8001bc8:	4906      	ldr	r1, [pc, #24]	; (8001be4 <__port_irq_epilogue.part.0+0x44>)
 8001bca:	4284      	cmp	r4, r0
 8001bcc:	bf88      	it	hi
 8001bce:	460a      	movhi	r2, r1
 8001bd0:	619a      	str	r2, [r3, #24]
    /* Note, returning without unlocking is intentional, this is done in
       order to keep the rest of the context switch atomic.*/
    return;
  }
  port_unlock_from_isr();
}
 8001bd2:	f85d 4b04 	ldr.w	r4, [sp], #4
 8001bd6:	4770      	bx	lr
 8001bd8:	e000ef00 	.word	0xe000ef00
 8001bdc:	200009f0 	.word	0x200009f0
 8001be0:	0800033e 	.word	0x0800033e
 8001be4:	08000333 	.word	0x08000333
	...

08001bf0 <__cpu_init>:

#if CORTEX_MODEL == 7
  SCB_EnableICache();
  SCB_EnableDCache();
#endif
}
 8001bf0:	4770      	bx	lr
 8001bf2:	bf00      	nop
	...

08001c00 <__late_init>:
 8001c00:	4770      	bx	lr
 8001c02:	bf00      	nop
	...

08001c10 <__default_exit>:
#endif
/*lint -save -e9075 [8.4] All symbols are invoked from asm context.*/
void __default_exit(void) {
/*lint -restore*/

  while (true) {
 8001c10:	e7fe      	b.n	8001c10 <__default_exit>
 8001c12:	bf00      	nop
	...

08001c20 <__init_ram_areas>:
#endif

/**
 * @brief   Performs the initialization of the various RAM areas.
 */
void __init_ram_areas(void) {
 8001c20:	b5f8      	push	{r3, r4, r5, r6, r7, lr}
 8001c22:	4d15      	ldr	r5, [pc, #84]	; (8001c78 <__init_ram_areas+0x58>)
 8001c24:	4f15      	ldr	r7, [pc, #84]	; (8001c7c <__init_ram_areas+0x5c>)
 8001c26:	4916      	ldr	r1, [pc, #88]	; (8001c80 <__init_ram_areas+0x60>)
 8001c28:	4816      	ldr	r0, [pc, #88]	; (8001c84 <__init_ram_areas+0x64>)
 8001c2a:	4a17      	ldr	r2, [pc, #92]	; (8001c88 <__init_ram_areas+0x68>)
 8001c2c:	f105 0470 	add.w	r4, r5, #112	; 0x70
  do {
    uint32_t *tp = rap->init_text_area;
    uint32_t *p = rap->init_area;

    /* Copying initialization data.*/
    while (p < rap->clear_area) {
 8001c30:	4281      	cmp	r1, r0
 8001c32:	d90d      	bls.n	8001c50 <__init_ram_areas+0x30>
 8001c34:	3a04      	subs	r2, #4
 8001c36:	4603      	mov	r3, r0
      *p = *tp;
 8001c38:	f852 6f04 	ldr.w	r6, [r2, #4]!
 8001c3c:	f843 6b04 	str.w	r6, [r3], #4
    while (p < rap->clear_area) {
 8001c40:	4299      	cmp	r1, r3
 8001c42:	d8f9      	bhi.n	8001c38 <__init_ram_areas+0x18>
      p++;
 8001c44:	1e4b      	subs	r3, r1, #1
 8001c46:	1a1b      	subs	r3, r3, r0
 8001c48:	f023 0303 	bic.w	r3, r3, #3
 8001c4c:	3304      	adds	r3, #4
 8001c4e:	4418      	add	r0, r3
      tp++;
    }

    /* Zeroing clear area.*/
    while (p < rap->no_init_area) {
 8001c50:	4287      	cmp	r7, r0
 8001c52:	d907      	bls.n	8001c64 <__init_ram_areas+0x44>
      *p = 0;
 8001c54:	1e7a      	subs	r2, r7, #1
 8001c56:	1a12      	subs	r2, r2, r0
 8001c58:	f022 0203 	bic.w	r2, r2, #3
 8001c5c:	3204      	adds	r2, #4
 8001c5e:	2100      	movs	r1, #0
 8001c60:	f002 fe3c 	bl	80048dc <memset>
      p++;
    }
    rap++;
  }
  while (rap < &ram_areas[CRT0_AREAS_NUMBER]);
 8001c64:	42a5      	cmp	r5, r4
 8001c66:	d005      	beq.n	8001c74 <__init_ram_areas+0x54>
    uint32_t *p = rap->init_area;
 8001c68:	e9d5 2004 	ldrd	r2, r0, [r5, #16]
    while (p < rap->no_init_area) {
 8001c6c:	e9d5 1706 	ldrd	r1, r7, [r5, #24]
 8001c70:	3510      	adds	r5, #16
 8001c72:	e7dd      	b.n	8001c30 <__init_ram_areas+0x10>
#endif
}
 8001c74:	bdf8      	pop	{r3, r4, r5, r6, r7, pc}
 8001c76:	bf00      	nop
 8001c78:	08004fe4 	.word	0x08004fe4
 8001c7c:	20002020 	.word	0x20002020
 8001c80:	20002020 	.word	0x20002020
 8001c84:	20002020 	.word	0x20002020
 8001c88:	08005098 	.word	0x08005098
 8001c8c:	00000000 	.word	0x00000000

08001c90 <__dbg_check_unlock>:
void __dbg_check_unlock(void) {
 8001c90:	b508      	push	{r3, lr}
  if (unlikely((oip->dbg.isr_cnt != (cnt_t)0) ||
 8001c92:	4b07      	ldr	r3, [pc, #28]	; (8001cb0 <__dbg_check_unlock+0x20>)
 8001c94:	f8d3 2088 	ldr.w	r2, [r3, #136]	; 0x88
 8001c98:	b932      	cbnz	r2, 8001ca8 <__dbg_check_unlock+0x18>
 8001c9a:	f8d3 108c 	ldr.w	r1, [r3, #140]	; 0x8c
 8001c9e:	2900      	cmp	r1, #0
 8001ca0:	dd02      	ble.n	8001ca8 <__dbg_check_unlock+0x18>
  oip->dbg.lock_cnt = (cnt_t)0;
 8001ca2:	f8c3 208c 	str.w	r2, [r3, #140]	; 0x8c
}
 8001ca6:	bd08      	pop	{r3, pc}
    chSysHalt("SV#5");
 8001ca8:	4802      	ldr	r0, [pc, #8]	; (8001cb4 <__dbg_check_unlock+0x24>)
 8001caa:	f7fe ff91 	bl	8000bd0 <chSysHalt>
 8001cae:	bf00      	nop
 8001cb0:	200009f0 	.word	0x200009f0
 8001cb4:	08004cc0 	.word	0x08004cc0
	...

08001cc0 <__dbg_check_lock>:
void __dbg_check_lock(void) {
 8001cc0:	b508      	push	{r3, lr}
  if (unlikely((oip->dbg.isr_cnt != (cnt_t)0) ||
 8001cc2:	4b06      	ldr	r3, [pc, #24]	; (8001cdc <__dbg_check_lock+0x1c>)
 8001cc4:	e9d3 2122 	ldrd	r2, r1, [r3, #136]	; 0x88
 8001cc8:	430a      	orrs	r2, r1
 8001cca:	d103      	bne.n	8001cd4 <__dbg_check_lock+0x14>
  oip->dbg.lock_cnt = (cnt_t)1;
 8001ccc:	2201      	movs	r2, #1
 8001cce:	f8c3 208c 	str.w	r2, [r3, #140]	; 0x8c
}
 8001cd2:	bd08      	pop	{r3, pc}
    chSysHalt("SV#4");
 8001cd4:	4802      	ldr	r0, [pc, #8]	; (8001ce0 <__dbg_check_lock+0x20>)
 8001cd6:	f7fe ff7b 	bl	8000bd0 <chSysHalt>
 8001cda:	bf00      	nop
 8001cdc:	200009f0 	.word	0x200009f0
 8001ce0:	08004c98 	.word	0x08004c98
	...

08001cf0 <chThdCreateStatic.constprop.0.isra.0>:
thread_t *chThdCreateStatic(void *wsp, size_t size,
 8001cf0:	b5f8      	push	{r3, r4, r5, r6, r7, lr}
 8001cf2:	4606      	mov	r6, r0
 8001cf4:	460d      	mov	r5, r1
 8001cf6:	4614      	mov	r4, r2
  __ASM volatile ("MSR basepri, %0" : : "r" (basePri) : "memory");
 8001cf8:	2330      	movs	r3, #48	; 0x30
 8001cfa:	f383 8811 	msr	BASEPRI, r3
 */
static inline void chSysLock(void) {

  port_lock();
  __stats_start_measure_crit_thd();
  __dbg_check_lock();
 8001cfe:	f7ff ffdf 	bl	8001cc0 <__dbg_check_lock>
  tp = threadref(((uint8_t *)wsp + size -
 8001d02:	f1a5 0c48 	sub.w	ip, r5, #72	; 0x48
 8001d06:	eb06 030c 	add.w	r3, r6, ip
  PORT_SETUP_CONTEXT(tp, wsp, tp, pf, arg);
 8001d0a:	f1a3 0264 	sub.w	r2, r3, #100	; 0x64
 8001d0e:	60da      	str	r2, [r3, #12]
 8001d10:	2100      	movs	r1, #0
  tp->refs              = (trefs_t)1;
 8001d12:	2201      	movs	r2, #1
 8001d14:	f883 2026 	strb.w	r2, [r3, #38]	; 0x26
  PORT_SETUP_CONTEXT(tp, wsp, tp, pf, arg);
 8001d18:	e943 4109 	strd	r4, r1, [r3, #-36]	; 0x24
  tp->epending          = (eventmask_t)0;
 8001d1c:	e9c3 110e 	strd	r1, r1, [r3, #56]	; 0x38
  tp->name              = name;
 8001d20:	4a2d      	ldr	r2, [pc, #180]	; (8001dd8 <chThdCreateStatic.constprop.0.isra.0+0xe8>)
 8001d22:	61da      	str	r2, [r3, #28]
  tp->state             = CH_STATE_WTSTART;
 8001d24:	2102      	movs	r1, #2
  tp->owner             = oip;
 8001d26:	4a2d      	ldr	r2, [pc, #180]	; (8001ddc <chThdCreateStatic.constprop.0.isra.0+0xec>)
  tp->state             = CH_STATE_WTSTART;
 8001d28:	8499      	strh	r1, [r3, #36]	; 0x24
  tp->hdr.pqueue.prio   = prio;
 8001d2a:	2180      	movs	r1, #128	; 0x80
 8001d2c:	6099      	str	r1, [r3, #8]
  p->prev       = qp->prev;
 8001d2e:	6ad4      	ldr	r4, [r2, #44]	; 0x2c
  PORT_SETUP_CONTEXT(tp, wsp, tp, pf, arg);
 8001d30:	4f2b      	ldr	r7, [pc, #172]	; (8001de0 <chThdCreateStatic.constprop.0.isra.0+0xf0>)
  if (unlikely((oip->dbg.isr_cnt != (cnt_t)0) ||
 8001d32:	f8d2 5088 	ldr.w	r5, [r2, #136]	; 0x88
  tp->realprio          = prio;
 8001d36:	6419      	str	r1, [r3, #64]	; 0x40
  PORT_SETUP_CONTEXT(tp, wsp, tp, pf, arg);
 8001d38:	f843 7c04 	str.w	r7, [r3, #-4]
  REG_INSERT(oip, tp);
 8001d3c:	f103 0010 	add.w	r0, r3, #16
  ch_queue_init(&tp->msgqueue);
 8001d40:	f103 0130 	add.w	r1, r3, #48	; 0x30
  p->next       = qp;
 8001d44:	f102 0728 	add.w	r7, r2, #40	; 0x28
  tp->wabase = (stkalign_t *)wsp;
 8001d48:	621e      	str	r6, [r3, #32]
  tp->owner             = oip;
 8001d4a:	619a      	str	r2, [r3, #24]
  p->prev       = qp->prev;
 8001d4c:	615c      	str	r4, [r3, #20]
  p->next       = qp;
 8001d4e:	611f      	str	r7, [r3, #16]
  p->prev->next = p;
 8001d50:	6020      	str	r0, [r4, #0]
  qp->prev = qp;
 8001d52:	e9c3 110c 	strd	r1, r1, [r3, #48]	; 0x30
  ch_list_init(&tp->waiting);
 8001d56:	f103 012c 	add.w	r1, r3, #44	; 0x2c
  qp->prev      = p;
 8001d5a:	62d0      	str	r0, [r2, #44]	; 0x2c
  lp->next = lp;
 8001d5c:	62d9      	str	r1, [r3, #44]	; 0x2c
 8001d5e:	bb45      	cbnz	r5, 8001db2 <chThdCreateStatic.constprop.0.isra.0+0xc2>
 8001d60:	f8d2 108c 	ldr.w	r1, [r2, #140]	; 0x8c
 8001d64:	2900      	cmp	r1, #0
 8001d66:	dd24      	ble.n	8001db2 <chThdCreateStatic.constprop.0.isra.0+0xc2>
  thread_t *otp = __instance_get_currthread(oip);
 8001d68:	68d1      	ldr	r1, [r2, #12]
  if (unlikely(ntp->hdr.pqueue.prio <= otp->hdr.pqueue.prio)) {
 8001d6a:	6898      	ldr	r0, [r3, #8]
 8001d6c:	688c      	ldr	r4, [r1, #8]
  ntp->u.rdymsg = msg;
 8001d6e:	629d      	str	r5, [r3, #40]	; 0x28
  if (unlikely(ntp->hdr.pqueue.prio <= otp->hdr.pqueue.prio)) {
 8001d70:	42a0      	cmp	r0, r4
 8001d72:	d924      	bls.n	8001dbe <chThdCreateStatic.constprop.0.isra.0+0xce>
  return threadref(ch_pqueue_insert_ahead(&tp->owner->rlist.pqueue,
 8001d74:	6988      	ldr	r0, [r1, #24]
  tp->state = CH_STATE_READY;
 8001d76:	f881 5024 	strb.w	r5, [r1, #36]	; 0x24
    pqp = pqp->next;
 8001d7a:	6800      	ldr	r0, [r0, #0]
  } while (unlikely(pqp->prio > p->prio));
 8001d7c:	6885      	ldr	r5, [r0, #8]
 8001d7e:	42ac      	cmp	r4, r5
 8001d80:	d3fb      	bcc.n	8001d7a <chThdCreateStatic.constprop.0.isra.0+0x8a>
  p->prev       = pqp->prev;
 8001d82:	6844      	ldr	r4, [r0, #4]
 8001d84:	e9c1 0400 	strd	r0, r4, [r1]
  p->prev->next = p;
 8001d88:	6021      	str	r1, [r4, #0]
    ntp->state = CH_STATE_CURRENT;
 8001d8a:	2401      	movs	r4, #1
  pqp->prev     = p;
 8001d8c:	6041      	str	r1, [r0, #4]
 8001d8e:	f883 4024 	strb.w	r4, [r3, #36]	; 0x24
    __instance_set_currthread(oip, ntp);
 8001d92:	60d3      	str	r3, [r2, #12]
  __ASM volatile ("MRS %0, psp"  : "=r" (result) );
 8001d94:	f3ef 8209 	mrs	r2, PSP
    chSysSwitch(ntp, otp);
 8001d98:	6a08      	ldr	r0, [r1, #32]
 8001d9a:	3a64      	subs	r2, #100	; 0x64
 8001d9c:	4290      	cmp	r0, r2
 8001d9e:	d80b      	bhi.n	8001db8 <chThdCreateStatic.constprop.0.isra.0+0xc8>
 8001da0:	4618      	mov	r0, r3
 8001da2:	f7fe faaf 	bl	8000304 <__port_switch>
 *
 * @special
 */
static inline void chSysUnlock(void) {

  __dbg_check_unlock();
 8001da6:	f7ff ff73 	bl	8001c90 <__dbg_check_unlock>
  __ASM volatile ("MSR basepri, %0" : : "r" (basePri) : "memory");
 8001daa:	2300      	movs	r3, #0
 8001dac:	f383 8811 	msr	BASEPRI, r3
}
 8001db0:	bdf8      	pop	{r3, r4, r5, r6, r7, pc}
    chSysHalt("SV#11");
 8001db2:	480c      	ldr	r0, [pc, #48]	; (8001de4 <chThdCreateStatic.constprop.0.isra.0+0xf4>)
 8001db4:	f7fe ff0c 	bl	8000bd0 <chSysHalt>
 8001db8:	480b      	ldr	r0, [pc, #44]	; (8001de8 <chThdCreateStatic.constprop.0.isra.0+0xf8>)
 8001dba:	f7fe ff09 	bl	8000bd0 <chSysHalt>
  tp->state = CH_STATE_READY;
 8001dbe:	f883 5024 	strb.w	r5, [r3, #36]	; 0x24
    pqp = pqp->next;
 8001dc2:	6812      	ldr	r2, [r2, #0]
  } while (unlikely(pqp->prio >= p->prio));
 8001dc4:	6891      	ldr	r1, [r2, #8]
 8001dc6:	4288      	cmp	r0, r1
 8001dc8:	d9fb      	bls.n	8001dc2 <chThdCreateStatic.constprop.0.isra.0+0xd2>
  p->prev       = pqp->prev;
 8001dca:	6851      	ldr	r1, [r2, #4]
  p->next       = pqp;
 8001dcc:	f846 200c 	str.w	r2, [r6, ip]
  p->prev       = pqp->prev;
 8001dd0:	6059      	str	r1, [r3, #4]
  p->prev->next = p;
 8001dd2:	600b      	str	r3, [r1, #0]
  pqp->prev     = p;
 8001dd4:	6053      	str	r3, [r2, #4]
  return threadref(ch_pqueue_insert_behind(&tp->owner->rlist.pqueue,
 8001dd6:	e7e6      	b.n	8001da6 <chThdCreateStatic.constprop.0.isra.0+0xb6>
 8001dd8:	08004cc8 	.word	0x08004cc8
 8001ddc:	200009f0 	.word	0x200009f0
 8001de0:	0800031d 	.word	0x0800031d
 8001de4:	08004ca8 	.word	0x08004ca8
 8001de8:	08004cb0 	.word	0x08004cb0
 8001dec:	00000000 	.word	0x00000000

08001df0 <sdStart.isra.0>:
msg_t sdStart(SerialDriver *sdp, const SerialConfig *config) {
 8001df0:	b538      	push	{r3, r4, r5, lr}
 8001df2:	4604      	mov	r4, r0
 8001df4:	460d      	mov	r5, r1
 8001df6:	2330      	movs	r3, #48	; 0x30
 8001df8:	f383 8811 	msr	BASEPRI, r3
  __dbg_check_lock();
 8001dfc:	f7ff ff60 	bl	8001cc0 <__dbg_check_lock>
  if (sdp->state == SD_STOP) {
 8001e00:	7a23      	ldrb	r3, [r4, #8]
 8001e02:	2b01      	cmp	r3, #1
 8001e04:	d035      	beq.n	8001e72 <sdStart.isra.0+0x82>
  USART_TypeDef *u = sdp->usart;
 8001e06:	e9d4 321d 	ldrd	r3, r2, [r4, #116]	; 0x74
  if (config->cr1 & USART_CR1_OVER8)
 8001e0a:	f9b5 0004 	ldrsh.w	r0, [r5, #4]
  brr = (uint32_t)((sdp->clock + config->speed/2) / config->speed);
 8001e0e:	6829      	ldr	r1, [r5, #0]
  if (config->cr1 & USART_CR1_OVER8)
 8001e10:	2800      	cmp	r0, #0
  brr = (uint32_t)((sdp->clock + config->speed/2) / config->speed);
 8001e12:	eb02 0251 	add.w	r2, r2, r1, lsr #1
 8001e16:	fbb2 f2f1 	udiv	r2, r2, r1
  if (config->cr1 & USART_CR1_OVER8)
 8001e1a:	88a9      	ldrh	r1, [r5, #4]
 8001e1c:	da05      	bge.n	8001e2a <sdStart.isra.0+0x3a>
    brr = ((brr & ~7) * 2) | (brr & 7);
 8001e1e:	f022 0007 	bic.w	r0, r2, #7
 8001e22:	f002 0207 	and.w	r2, r2, #7
 8001e26:	ea42 0240 	orr.w	r2, r2, r0, lsl #1
  u->BRR = brr;
 8001e2a:	609a      	str	r2, [r3, #8]
  u->CR2 = config->cr2 | USART_CR2_LBDIE;
 8001e2c:	88e8      	ldrh	r0, [r5, #6]
  u->CR3 = config->cr3 | USART_CR3_EIE;
 8001e2e:	892a      	ldrh	r2, [r5, #8]
  u->CR2 = config->cr2 | USART_CR2_LBDIE;
 8001e30:	f040 0040 	orr.w	r0, r0, #64	; 0x40
  u->CR3 = config->cr3 | USART_CR3_EIE;
 8001e34:	f042 0201 	orr.w	r2, r2, #1
  u->CR2 = config->cr2 | USART_CR2_LBDIE;
 8001e38:	6118      	str	r0, [r3, #16]
  u->CR3 = config->cr3 | USART_CR3_EIE;
 8001e3a:	615a      	str	r2, [r3, #20]
                         USART_CR1_RXNEIE | USART_CR1_TE |
 8001e3c:	f441 5204 	orr.w	r2, r1, #8448	; 0x2100
  if ((config->cr1 & (USART_CR1_M | USART_CR1_PCE)) == USART_CR1_PCE) {
 8001e40:	f401 51a0 	and.w	r1, r1, #5120	; 0x1400
    sdp->rxmask = 0xFF;
 8001e44:	f5b1 6f80 	cmp.w	r1, #1024	; 0x400
                         USART_CR1_RXNEIE | USART_CR1_TE |
 8001e48:	f042 022c 	orr.w	r2, r2, #44	; 0x2c
  u->SR = 0;
 8001e4c:	f04f 0500 	mov.w	r5, #0
  u->CR1 = config->cr1 | USART_CR1_UE | USART_CR1_PEIE |
 8001e50:	60da      	str	r2, [r3, #12]
    sdp->rxmask = 0xFF;
 8001e52:	bf08      	it	eq
 8001e54:	217f      	moveq	r1, #127	; 0x7f
  u->SR = 0;
 8001e56:	601d      	str	r5, [r3, #0]
    sdp->rxmask = 0xFF;
 8001e58:	bf18      	it	ne
 8001e5a:	21ff      	movne	r1, #255	; 0xff
    sdp->state = SD_READY;
 8001e5c:	2202      	movs	r2, #2
  (void)u->SR;  /* SR reset step 1.*/
 8001e5e:	6818      	ldr	r0, [r3, #0]
  (void)u->DR;  /* SR reset step 2.*/
 8001e60:	685b      	ldr	r3, [r3, #4]
 8001e62:	f884 107c 	strb.w	r1, [r4, #124]	; 0x7c
 8001e66:	7222      	strb	r2, [r4, #8]
  __dbg_check_unlock();
 8001e68:	f7ff ff12 	bl	8001c90 <__dbg_check_unlock>
 8001e6c:	f385 8811 	msr	BASEPRI, r5
}
 8001e70:	bd38      	pop	{r3, r4, r5, pc}
    if (&SD1 == sdp) {
 8001e72:	4b0e      	ldr	r3, [pc, #56]	; (8001eac <sdStart.isra.0+0xbc>)
 8001e74:	429c      	cmp	r4, r3
 8001e76:	d00d      	beq.n	8001e94 <sdStart.isra.0+0xa4>
    if (&SD2 == sdp) {
 8001e78:	4b0d      	ldr	r3, [pc, #52]	; (8001eb0 <sdStart.isra.0+0xc0>)
 8001e7a:	429c      	cmp	r4, r3
 8001e7c:	d1c3      	bne.n	8001e06 <sdStart.isra.0+0x16>
      rccEnableUSART2(true);
 8001e7e:	4b0d      	ldr	r3, [pc, #52]	; (8001eb4 <sdStart.isra.0+0xc4>)
 8001e80:	6c1a      	ldr	r2, [r3, #64]	; 0x40
 8001e82:	f442 3200 	orr.w	r2, r2, #131072	; 0x20000
 8001e86:	641a      	str	r2, [r3, #64]	; 0x40
 8001e88:	6e1a      	ldr	r2, [r3, #96]	; 0x60
 8001e8a:	f442 3200 	orr.w	r2, r2, #131072	; 0x20000
 8001e8e:	661a      	str	r2, [r3, #96]	; 0x60
 8001e90:	6e1b      	ldr	r3, [r3, #96]	; 0x60
 8001e92:	e7b8      	b.n	8001e06 <sdStart.isra.0+0x16>
      rccEnableUSART1(true);
 8001e94:	4b07      	ldr	r3, [pc, #28]	; (8001eb4 <sdStart.isra.0+0xc4>)
 8001e96:	6c5a      	ldr	r2, [r3, #68]	; 0x44
 8001e98:	f042 0210 	orr.w	r2, r2, #16
 8001e9c:	645a      	str	r2, [r3, #68]	; 0x44
 8001e9e:	6e5a      	ldr	r2, [r3, #100]	; 0x64
 8001ea0:	f042 0210 	orr.w	r2, r2, #16
 8001ea4:	665a      	str	r2, [r3, #100]	; 0x64
 8001ea6:	6e5b      	ldr	r3, [r3, #100]	; 0x64
 8001ea8:	e7ad      	b.n	8001e06 <sdStart.isra.0+0x16>
 8001eaa:	bf00      	nop
 8001eac:	200008b4 	.word	0x200008b4
 8001eb0:	20000934 	.word	0x20000934
 8001eb4:	40023800 	.word	0x40023800
	...

08001ec0 <VectorD4>:
/**
 * @brief   USART1 interrupt handler.
 *
 * @isr
 */
OSAL_IRQ_HANDLER(STM32_USART1_HANDLER) {
 8001ec0:	b538      	push	{r3, r4, r5, lr}
 8001ec2:	2530      	movs	r5, #48	; 0x30
 8001ec4:	f385 8811 	msr	BASEPRI, r5
  if (unlikely((oip->dbg.isr_cnt < (cnt_t)0) ||
 8001ec8:	4c18      	ldr	r4, [pc, #96]	; (8001f2c <VectorD4+0x6c>)
 8001eca:	f8d4 3088 	ldr.w	r3, [r4, #136]	; 0x88
 8001ece:	2b00      	cmp	r3, #0
 8001ed0:	db22      	blt.n	8001f18 <VectorD4+0x58>
 8001ed2:	f8d4 208c 	ldr.w	r2, [r4, #140]	; 0x8c
 8001ed6:	b9fa      	cbnz	r2, 8001f18 <VectorD4+0x58>
  oip->dbg.isr_cnt++;
 8001ed8:	3301      	adds	r3, #1
 8001eda:	f8c4 3088 	str.w	r3, [r4, #136]	; 0x88
 8001ede:	f382 8811 	msr	BASEPRI, r2

  OSAL_IRQ_PROLOGUE();

#if HAL_USE_SERIAL
#if STM32_SERIAL_USE_USART1
  sd_lld_serve_interrupt(&SD1);
 8001ee2:	4813      	ldr	r0, [pc, #76]	; (8001f30 <VectorD4+0x70>)
 8001ee4:	f7ff f93c 	bl	8001160 <sd_lld_serve_interrupt>
 8001ee8:	f385 8811 	msr	BASEPRI, r5
  if (unlikely((oip->dbg.isr_cnt <= (cnt_t)0) ||
 8001eec:	f8d4 3088 	ldr.w	r3, [r4, #136]	; 0x88
 8001ef0:	2b00      	cmp	r3, #0
 8001ef2:	dd14      	ble.n	8001f1e <VectorD4+0x5e>
 8001ef4:	f8d4 208c 	ldr.w	r2, [r4, #140]	; 0x8c
 8001ef8:	b98a      	cbnz	r2, 8001f1e <VectorD4+0x5e>
  oip->dbg.isr_cnt--;
 8001efa:	3b01      	subs	r3, #1
 8001efc:	f8c4 3088 	str.w	r3, [r4, #136]	; 0x88
 8001f00:	f382 8811 	msr	BASEPRI, r2
 8001f04:	f385 8811 	msr	BASEPRI, r5
  if ((SCB->ICSR & SCB_ICSR_RETTOBASE_Msk) != 0U) {
 8001f08:	4b0a      	ldr	r3, [pc, #40]	; (8001f34 <VectorD4+0x74>)
 8001f0a:	685b      	ldr	r3, [r3, #4]
 8001f0c:	f413 6300 	ands.w	r3, r3, #2048	; 0x800
 8001f10:	d108      	bne.n	8001f24 <VectorD4+0x64>
 8001f12:	f383 8811 	msr	BASEPRI, r3
  uart_lld_serve_interrupt(&UARTD1);
#endif
#endif

  OSAL_IRQ_EPILOGUE();
}
 8001f16:	bd38      	pop	{r3, r4, r5, pc}
    chSysHalt("SV#8");
 8001f18:	4807      	ldr	r0, [pc, #28]	; (8001f38 <VectorD4+0x78>)
 8001f1a:	f7fe fe59 	bl	8000bd0 <chSysHalt>
    chSysHalt("SV#9");
 8001f1e:	4807      	ldr	r0, [pc, #28]	; (8001f3c <VectorD4+0x7c>)
 8001f20:	f7fe fe56 	bl	8000bd0 <chSysHalt>
 8001f24:	e8bd 4038 	ldmia.w	sp!, {r3, r4, r5, lr}
 8001f28:	f7ff be3a 	b.w	8001ba0 <__port_irq_epilogue.part.0>
 8001f2c:	200009f0 	.word	0x200009f0
 8001f30:	200008b4 	.word	0x200008b4
 8001f34:	e000ed00 	.word	0xe000ed00
 8001f38:	08004cd0 	.word	0x08004cd0
 8001f3c:	08004cd8 	.word	0x08004cd8

08001f40 <VectorD8>:
/**
 * @brief   USART2 interrupt handler.
 *
 * @isr
 */
OSAL_IRQ_HANDLER(STM32_USART2_HANDLER) {
 8001f40:	b538      	push	{r3, r4, r5, lr}
 8001f42:	2530      	movs	r5, #48	; 0x30
 8001f44:	f385 8811 	msr	BASEPRI, r5
  if (unlikely((oip->dbg.isr_cnt < (cnt_t)0) ||
 8001f48:	4c18      	ldr	r4, [pc, #96]	; (8001fac <VectorD8+0x6c>)
 8001f4a:	f8d4 3088 	ldr.w	r3, [r4, #136]	; 0x88
 8001f4e:	2b00      	cmp	r3, #0
 8001f50:	db22      	blt.n	8001f98 <VectorD8+0x58>
 8001f52:	f8d4 208c 	ldr.w	r2, [r4, #140]	; 0x8c
 8001f56:	b9fa      	cbnz	r2, 8001f98 <VectorD8+0x58>
  oip->dbg.isr_cnt++;
 8001f58:	3301      	adds	r3, #1
 8001f5a:	f8c4 3088 	str.w	r3, [r4, #136]	; 0x88
 8001f5e:	f382 8811 	msr	BASEPRI, r2

  OSAL_IRQ_PROLOGUE();

#if HAL_USE_SERIAL
#if STM32_SERIAL_USE_USART2
  sd_lld_serve_interrupt(&SD2);
 8001f62:	4813      	ldr	r0, [pc, #76]	; (8001fb0 <VectorD8+0x70>)
 8001f64:	f7ff f8fc 	bl	8001160 <sd_lld_serve_interrupt>
 8001f68:	f385 8811 	msr	BASEPRI, r5
  if (unlikely((oip->dbg.isr_cnt <= (cnt_t)0) ||
 8001f6c:	f8d4 3088 	ldr.w	r3, [r4, #136]	; 0x88
 8001f70:	2b00      	cmp	r3, #0
 8001f72:	dd14      	ble.n	8001f9e <VectorD8+0x5e>
 8001f74:	f8d4 208c 	ldr.w	r2, [r4, #140]	; 0x8c
 8001f78:	b98a      	cbnz	r2, 8001f9e <VectorD8+0x5e>
  oip->dbg.isr_cnt--;
 8001f7a:	3b01      	subs	r3, #1
 8001f7c:	f8c4 3088 	str.w	r3, [r4, #136]	; 0x88
 8001f80:	f382 8811 	msr	BASEPRI, r2
 8001f84:	f385 8811 	msr	BASEPRI, r5
 8001f88:	4b0a      	ldr	r3, [pc, #40]	; (8001fb4 <VectorD8+0x74>)
 8001f8a:	685b      	ldr	r3, [r3, #4]
 8001f8c:	f413 6300 	ands.w	r3, r3, #2048	; 0x800
 8001f90:	d108      	bne.n	8001fa4 <VectorD8+0x64>
 8001f92:	f383 8811 	msr	BASEPRI, r3
  uart_lld_serve_interrupt(&UARTD2);
#endif
#endif

  OSAL_IRQ_EPILOGUE();
}
 8001f96:	bd38      	pop	{r3, r4, r5, pc}
    chSysHalt("SV#8");
 8001f98:	4807      	ldr	r0, [pc, #28]	; (8001fb8 <VectorD8+0x78>)
 8001f9a:	f7fe fe19 	bl	8000bd0 <chSysHalt>
    chSysHalt("SV#9");
 8001f9e:	4807      	ldr	r0, [pc, #28]	; (8001fbc <VectorD8+0x7c>)
 8001fa0:	f7fe fe16 	bl	8000bd0 <chSysHalt>
 8001fa4:	e8bd 4038 	ldmia.w	sp!, {r3, r4, r5, lr}
 8001fa8:	f7ff bdfa 	b.w	8001ba0 <__port_irq_epilogue.part.0>
 8001fac:	200009f0 	.word	0x200009f0
 8001fb0:	20000934 	.word	0x20000934
 8001fb4:	e000ed00 	.word	0xe000ed00
 8001fb8:	08004cd0 	.word	0x08004cd0
 8001fbc:	08004cd8 	.word	0x08004cd8

08001fc0 <VectorA8>:
/**
 * @brief   TIM1-TRG-COM, TIM11 interrupt handler.
 *
 * @isr
 */
OSAL_IRQ_HANDLER(STM32_TIM1_TRGCO_TIM11_HANDLER) {
 8001fc0:	e92d 4ff8 	stmdb	sp!, {r3, r4, r5, r6, r7, r8, r9, sl, fp, lr}
 8001fc4:	2130      	movs	r1, #48	; 0x30
 8001fc6:	f381 8811 	msr	BASEPRI, r1
  if (unlikely((oip->dbg.isr_cnt < (cnt_t)0) ||
 8001fca:	4c6c      	ldr	r4, [pc, #432]	; (800217c <VectorA8+0x1bc>)
 8001fcc:	f8d4 3088 	ldr.w	r3, [r4, #136]	; 0x88
 8001fd0:	2b00      	cmp	r3, #0
 8001fd2:	f2c0 80a0 	blt.w	8002116 <VectorA8+0x156>
 8001fd6:	f8d4 208c 	ldr.w	r2, [r4, #140]	; 0x8c
 8001fda:	2a00      	cmp	r2, #0
 8001fdc:	f040 809b 	bne.w	8002116 <VectorA8+0x156>
  oip->dbg.isr_cnt++;
 8001fe0:	3301      	adds	r3, #1
 8001fe2:	f8c4 3088 	str.w	r3, [r4, #136]	; 0x88
 8001fe6:	f382 8811 	msr	BASEPRI, r2
void st_lld_serve_interrupt(void) {
#if OSAL_ST_MODE == OSAL_ST_MODE_FREERUNNING
  uint32_t sr;
  stm32_tim_t *timp = STM32_ST_TIM;

  sr  = timp->SR;
 8001fea:	4d65      	ldr	r5, [pc, #404]	; (8002180 <VectorA8+0x1c0>)
 8001fec:	692b      	ldr	r3, [r5, #16]
  sr &= timp->DIER & STM32_TIM_DIER_IRQ_MASK;
 8001fee:	68ea      	ldr	r2, [r5, #12]
 8001ff0:	4013      	ands	r3, r2
 8001ff2:	b2da      	uxtb	r2, r3
  timp->SR = ~sr;
 8001ff4:	43d2      	mvns	r2, r2

  if ((sr & TIM_SR_CC1IF) != 0U)
 8001ff6:	079b      	lsls	r3, r3, #30
  timp->SR = ~sr;
 8001ff8:	612a      	str	r2, [r5, #16]
  if ((sr & TIM_SR_CC1IF) != 0U)
 8001ffa:	d41b      	bmi.n	8002034 <VectorA8+0x74>
 8001ffc:	2230      	movs	r2, #48	; 0x30
 8001ffe:	f382 8811 	msr	BASEPRI, r2
  if (unlikely((oip->dbg.isr_cnt <= (cnt_t)0) ||
 8002002:	f8d4 3088 	ldr.w	r3, [r4, #136]	; 0x88
 8002006:	2b00      	cmp	r3, #0
 8002008:	f340 8082 	ble.w	8002110 <VectorA8+0x150>
 800200c:	f8d4 108c 	ldr.w	r1, [r4, #140]	; 0x8c
 8002010:	2900      	cmp	r1, #0
 8002012:	d17d      	bne.n	8002110 <VectorA8+0x150>
  oip->dbg.isr_cnt--;
 8002014:	3b01      	subs	r3, #1
 8002016:	f8c4 3088 	str.w	r3, [r4, #136]	; 0x88
 800201a:	f381 8811 	msr	BASEPRI, r1
 800201e:	f382 8811 	msr	BASEPRI, r2
 8002022:	4b58      	ldr	r3, [pc, #352]	; (8002184 <VectorA8+0x1c4>)
 8002024:	685b      	ldr	r3, [r3, #4]
 8002026:	f413 6300 	ands.w	r3, r3, #2048	; 0x800
 800202a:	d17a      	bne.n	8002122 <VectorA8+0x162>
 800202c:	f383 8811 	msr	BASEPRI, r3
  st_lld_serve_interrupt();
#endif
#endif

  OSAL_IRQ_EPILOGUE();
}
 8002030:	e8bd 8ff8 	ldmia.w	sp!, {r3, r4, r5, r6, r7, r8, r9, sl, fp, pc}
 8002034:	f381 8811 	msr	BASEPRI, r1
  if (unlikely((oip->dbg.isr_cnt <= (cnt_t)0) ||
 8002038:	f8d4 3088 	ldr.w	r3, [r4, #136]	; 0x88
 800203c:	2b00      	cmp	r3, #0
 800203e:	dd6d      	ble.n	800211c <VectorA8+0x15c>
 8002040:	f8d4 a08c 	ldr.w	sl, [r4, #140]	; 0x8c
 8002044:	f1ba 0f00 	cmp.w	sl, #0
 8002048:	d168      	bne.n	800211c <VectorA8+0x15c>
  oip->dbg.lock_cnt = (cnt_t)1;
 800204a:	2301      	movs	r3, #1
 800204c:	f8c4 308c 	str.w	r3, [r4, #140]	; 0x8c
  if (unlikely((oip->dbg.isr_cnt < (cnt_t)0) ||
 8002050:	f104 0b10 	add.w	fp, r4, #16
    lasttime = chTimeAddX(vtlp->lasttime, vtp->dlist.delta);
    vtlp->lasttime = lasttime;

    /* Removing the timer from the list, marking it as not armed.*/
    (void) ch_dlist_dequeue(&vtp->dlist);
    vtp->dlist.next = NULL;
 8002054:	46d0      	mov	r8, sl
 8002056:	f04f 0930 	mov.w	r9, #48	; 0x30
  return (systime_t)STM32_ST_TIM->CNT;
 800205a:	6a68      	ldr	r0, [r5, #36]	; 0x24
    vtp = (virtual_timer_t *)vtlp->dlist.next;
 800205c:	6926      	ldr	r6, [r4, #16]
    nowdelta = chTimeDiffX(vtlp->lasttime, now);
 800205e:	8ba3      	ldrh	r3, [r4, #28]
    if (nowdelta < vtp->dlist.delta) {
 8002060:	68b1      	ldr	r1, [r6, #8]
 8002062:	b280      	uxth	r0, r0
 8002064:	1ac2      	subs	r2, r0, r3
 8002066:	b292      	uxth	r2, r2
 8002068:	428a      	cmp	r2, r1
 800206a:	d361      	bcc.n	8002130 <VectorA8+0x170>
  return systime + (systime_t)interval;
 800206c:	440b      	add	r3, r1
 800206e:	b29f      	uxth	r7, r3
  dlp->prev->next = dlp->next;
 8002070:	e9d6 3200 	ldrd	r3, r2, [r6]
    vtlp->lasttime = lasttime;
 8002074:	83a7      	strh	r7, [r4, #28]
 8002076:	6013      	str	r3, [r2, #0]
  dlp->next->prev = dlp->prev;
 8002078:	605a      	str	r2, [r3, #4]
    vtp->dlist.next = NULL;
 800207a:	f8c6 a000 	str.w	sl, [r6]

    /* If the list becomes empty then the alarm is disabled.*/
    if (ch_dlist_isempty(&vtlp->dlist)) {
 800207e:	6923      	ldr	r3, [r4, #16]
 8002080:	455b      	cmp	r3, fp
  STM32_ST_TIM->DIER = 0U;
 8002082:	bf08      	it	eq
 8002084:	f8c5 a00c 	streq.w	sl, [r5, #12]
  if (unlikely((oip->dbg.isr_cnt <= (cnt_t)0) ||
 8002088:	f8d4 3088 	ldr.w	r3, [r4, #136]	; 0x88
 800208c:	2b00      	cmp	r3, #0
 800208e:	dd4c      	ble.n	800212a <VectorA8+0x16a>
 8002090:	f8d4 308c 	ldr.w	r3, [r4, #140]	; 0x8c
 8002094:	2b00      	cmp	r3, #0
 8002096:	dd48      	ble.n	800212a <VectorA8+0x16a>
  oip->dbg.lock_cnt = (cnt_t)0;
 8002098:	f8c4 a08c 	str.w	sl, [r4, #140]	; 0x8c
 800209c:	f388 8811 	msr	BASEPRI, r8
    /* The callback is invoked outside the kernel critical section, it
       is re-entered on the callback return. Note that "lasttime" can be
       modified within the callback if some timer function is called.*/
    chSysUnlockFromISR();

    vtp->func(vtp, vtp->par);
 80020a0:	e9d6 3103 	ldrd	r3, r1, [r6, #12]
 80020a4:	4630      	mov	r0, r6
 80020a6:	4798      	blx	r3
 80020a8:	f389 8811 	msr	BASEPRI, r9
  if (unlikely((oip->dbg.isr_cnt <= (cnt_t)0) ||
 80020ac:	f8d4 3088 	ldr.w	r3, [r4, #136]	; 0x88
 80020b0:	2b00      	cmp	r3, #0
 80020b2:	dd33      	ble.n	800211c <VectorA8+0x15c>
 80020b4:	f8d4 008c 	ldr.w	r0, [r4, #140]	; 0x8c
 80020b8:	bb80      	cbnz	r0, 800211c <VectorA8+0x15c>

    chSysLockFromISR();

    /* If a reload is defined the timer needs to be restarted.*/
    if (unlikely(vtp->reload > (sysinterval_t)0)) {
 80020ba:	6972      	ldr	r2, [r6, #20]
  oip->dbg.lock_cnt = (cnt_t)1;
 80020bc:	2301      	movs	r3, #1
 80020be:	f8c4 308c 	str.w	r3, [r4, #140]	; 0x8c
 80020c2:	2a00      	cmp	r2, #0
 80020c4:	d0c9      	beq.n	800205a <VectorA8+0x9a>
  return (systime_t)STM32_ST_TIM->CNT;
 80020c6:	6a69      	ldr	r1, [r5, #36]	; 0x24
 80020c8:	b289      	uxth	r1, r1
  return (sysinterval_t)((systime_t)(end - start));
 80020ca:	1bcf      	subs	r7, r1, r7
 80020cc:	b2bf      	uxth	r7, r7
      now = chVTGetSystemTimeX();
      nowdelta = chTimeDiffX(lasttime, now);

#if !defined(CH_VT_RFCU_DISABLED)
      /* Checking if the required reload is feasible.*/
      if (nowdelta > vtp->reload) {
 80020ce:	42ba      	cmp	r2, r7
 80020d0:	d343      	bcc.n	800215a <VectorA8+0x19a>
  return (bool)(dlhp == dlhp->next);
 80020d2:	f8d4 c010 	ldr.w	ip, [r4, #16]
      /* Enqueuing the timer again using the calculated delta.*/
      delay = vtp->reload - nowdelta;
#endif

      /* Special case where the timers list is empty.*/
      if (ch_dlist_isempty(&vtlp->dlist)) {
 80020d6:	45dc      	cmp	ip, fp
 80020d8:	d049      	beq.n	800216e <VectorA8+0x1ae>
  while (likely(dlp->delta < delta)) {
 80020da:	f8dc 3008 	ldr.w	r3, [ip, #8]
 80020de:	429a      	cmp	r2, r3
 80020e0:	d906      	bls.n	80020f0 <VectorA8+0x130>
    dlp = dlp->next;
 80020e2:	f8dc c000 	ldr.w	ip, [ip]
    delta -= dlp->delta;
 80020e6:	1ad2      	subs	r2, r2, r3
  while (likely(dlp->delta < delta)) {
 80020e8:	f8dc 3008 	ldr.w	r3, [ip, #8]
 80020ec:	4293      	cmp	r3, r2
 80020ee:	d3f8      	bcc.n	80020e2 <VectorA8+0x122>
  dlp->delta      = delta;
 80020f0:	60b2      	str	r2, [r6, #8]
  dlp->delta -= delta;
 80020f2:	f8dc 3008 	ldr.w	r3, [ip, #8]
  dlp->next       = dlhp;
 80020f6:	f8c6 c000 	str.w	ip, [r6]
  dlp->delta -= delta;
 80020fa:	1a9b      	subs	r3, r3, r2
  dlp->prev       = dlp->next->prev;
 80020fc:	f8dc 2004 	ldr.w	r2, [ip, #4]
 8002100:	6072      	str	r2, [r6, #4]
  dlp->prev->next = dlp;
 8002102:	6016      	str	r6, [r2, #0]
  dlp->delta -= delta;
 8002104:	e9cc 6301 	strd	r6, r3, [ip, #4]
  dlhp->delta = (sysinterval_t)-1;
 8002108:	f04f 33ff 	mov.w	r3, #4294967295
 800210c:	61a3      	str	r3, [r4, #24]
}
 800210e:	e7a2      	b.n	8002056 <VectorA8+0x96>
    chSysHalt("SV#9");
 8002110:	481d      	ldr	r0, [pc, #116]	; (8002188 <VectorA8+0x1c8>)
 8002112:	f7fe fd5d 	bl	8000bd0 <chSysHalt>
    chSysHalt("SV#8");
 8002116:	481d      	ldr	r0, [pc, #116]	; (800218c <VectorA8+0x1cc>)
 8002118:	f7fe fd5a 	bl	8000bd0 <chSysHalt>
    chSysHalt("SV#6");
 800211c:	481c      	ldr	r0, [pc, #112]	; (8002190 <VectorA8+0x1d0>)
 800211e:	f7fe fd57 	bl	8000bd0 <chSysHalt>
 8002122:	e8bd 4ff8 	ldmia.w	sp!, {r3, r4, r5, r6, r7, r8, r9, sl, fp, lr}
 8002126:	f7ff bd3b 	b.w	8001ba0 <__port_irq_epilogue.part.0>
    chSysHalt("SV#7");
 800212a:	481a      	ldr	r0, [pc, #104]	; (8002194 <VectorA8+0x1d4>)
 800212c:	f7fe fd50 	bl	8000bd0 <chSysHalt>
      ch_dlist_insert(&vtlp->dlist, &vtp->dlist, delta);
    }
  }

  /* If the list is empty, nothing else to do.*/
  if (ch_dlist_isempty(&vtlp->dlist)) {
 8002130:	455e      	cmp	r6, fp
 8002132:	d004      	beq.n	800213e <VectorA8+0x17e>
  }

  /* The "unprocessed nowdelta" time slice is added to "last time"
     and subtracted to next timer's delta.*/
  vtlp->lasttime += nowdelta;
  vtp->dlist.delta -= nowdelta;
 8002134:	1a89      	subs	r1, r1, r2
  vtlp->lasttime += nowdelta;
 8002136:	83a0      	strh	r0, [r4, #28]
  vtp->dlist.delta -= nowdelta;
 8002138:	60b1      	str	r1, [r6, #8]

  /* Update alarm time to next timer.*/
  vt_set_alarm(now, vtp->dlist.delta);
 800213a:	f7fe fe49 	bl	8000dd0 <vt_set_alarm>
  if (unlikely((oip->dbg.isr_cnt <= (cnt_t)0) ||
 800213e:	f8d4 3088 	ldr.w	r3, [r4, #136]	; 0x88
 8002142:	2b00      	cmp	r3, #0
 8002144:	ddf1      	ble.n	800212a <VectorA8+0x16a>
 8002146:	f8d4 308c 	ldr.w	r3, [r4, #140]	; 0x8c
 800214a:	2b00      	cmp	r3, #0
 800214c:	dded      	ble.n	800212a <VectorA8+0x16a>
  oip->dbg.lock_cnt = (cnt_t)0;
 800214e:	2300      	movs	r3, #0
 8002150:	f8c4 308c 	str.w	r3, [r4, #140]	; 0x8c
 8002154:	f383 8811 	msr	BASEPRI, r3
}
 8002158:	e750      	b.n	8001ffc <VectorA8+0x3c>
 800215a:	6b63      	ldr	r3, [r4, #52]	; 0x34
  return (bool)(dlhp == dlhp->next);
 800215c:	f8d4 c010 	ldr.w	ip, [r4, #16]
 8002160:	f043 0302 	orr.w	r3, r3, #2
      if (ch_dlist_isempty(&vtlp->dlist)) {
 8002164:	45dc      	cmp	ip, fp
 8002166:	6363      	str	r3, [r4, #52]	; 0x34
 8002168:	d006      	beq.n	8002178 <VectorA8+0x1b8>
 800216a:	463a      	mov	r2, r7
 800216c:	e7b5      	b.n	80020da <VectorA8+0x11a>
        delay = vtp->reload - nowdelta;
 800216e:	1bd2      	subs	r2, r2, r7
        vt_insert_first(vtlp, vtp, now, delay);
 8002170:	4630      	mov	r0, r6
 8002172:	f7fe ff85 	bl	8001080 <vt_insert_first.constprop.0>
        return;
 8002176:	e7e2      	b.n	800213e <VectorA8+0x17e>
        delay = (sysinterval_t)0;
 8002178:	4602      	mov	r2, r0
 800217a:	e7f9      	b.n	8002170 <VectorA8+0x1b0>
 800217c:	200009f0 	.word	0x200009f0
 8002180:	40014800 	.word	0x40014800
 8002184:	e000ed00 	.word	0xe000ed00
 8002188:	08004cd8 	.word	0x08004cd8
 800218c:	08004cd0 	.word	0x08004cd0
 8002190:	08004c88 	.word	0x08004c88
 8002194:	08004ca0 	.word	0x08004ca0
	...

080021a0 <Vector118>:
/**
 * @brief   TIM6 interrupt handler.
 *
 * @isr
 */
OSAL_IRQ_HANDLER(STM32_TIM6_HANDLER) {
 80021a0:	b538      	push	{r3, r4, r5, lr}
 80021a2:	2330      	movs	r3, #48	; 0x30
 80021a4:	f383 8811 	msr	BASEPRI, r3
  if (unlikely((oip->dbg.isr_cnt < (cnt_t)0) ||
 80021a8:	4c26      	ldr	r4, [pc, #152]	; (8002244 <Vector118+0xa4>)
 80021aa:	f8d4 3088 	ldr.w	r3, [r4, #136]	; 0x88
 80021ae:	2b00      	cmp	r3, #0
 80021b0:	db3d      	blt.n	800222e <Vector118+0x8e>
 80021b2:	f8d4 008c 	ldr.w	r0, [r4, #140]	; 0x8c
 80021b6:	2800      	cmp	r0, #0
 80021b8:	d139      	bne.n	800222e <Vector118+0x8e>
  oip->dbg.isr_cnt++;
 80021ba:	3301      	adds	r3, #1
 80021bc:	f8c4 3088 	str.w	r3, [r4, #136]	; 0x88
 80021c0:	f380 8811 	msr	BASEPRI, r0
 * @notapi
 */
void gpt_lld_serve_interrupt(GPTDriver *gptp) {
  uint32_t sr;

  sr  = gptp->tim->SR;
 80021c4:	4d20      	ldr	r5, [pc, #128]	; (8002248 <Vector118+0xa8>)
 80021c6:	68ea      	ldr	r2, [r5, #12]
 80021c8:	6913      	ldr	r3, [r2, #16]
  sr &= gptp->tim->DIER & STM32_TIM_DIER_IRQ_MASK;
 80021ca:	68d1      	ldr	r1, [r2, #12]
 80021cc:	400b      	ands	r3, r1
 80021ce:	b2d9      	uxtb	r1, r3
  gptp->tim->SR = ~sr;
 80021d0:	43c9      	mvns	r1, r1
  if ((sr & STM32_TIM_SR_UIF) != 0) {
 80021d2:	07db      	lsls	r3, r3, #31
  gptp->tim->SR = ~sr;
 80021d4:	6111      	str	r1, [r2, #16]
  if ((sr & STM32_TIM_SR_UIF) != 0) {
 80021d6:	d418      	bmi.n	800220a <Vector118+0x6a>
 80021d8:	2230      	movs	r2, #48	; 0x30
 80021da:	f382 8811 	msr	BASEPRI, r2
  if (unlikely((oip->dbg.isr_cnt <= (cnt_t)0) ||
 80021de:	f8d4 3088 	ldr.w	r3, [r4, #136]	; 0x88
 80021e2:	2b00      	cmp	r3, #0
 80021e4:	dd26      	ble.n	8002234 <Vector118+0x94>
 80021e6:	f8d4 108c 	ldr.w	r1, [r4, #140]	; 0x8c
 80021ea:	bb19      	cbnz	r1, 8002234 <Vector118+0x94>
  oip->dbg.isr_cnt--;
 80021ec:	3b01      	subs	r3, #1
 80021ee:	f8c4 3088 	str.w	r3, [r4, #136]	; 0x88
 80021f2:	f381 8811 	msr	BASEPRI, r1
 80021f6:	f382 8811 	msr	BASEPRI, r2
 80021fa:	4b14      	ldr	r3, [pc, #80]	; (800224c <Vector118+0xac>)
 80021fc:	685b      	ldr	r3, [r3, #4]
 80021fe:	f413 6300 	ands.w	r3, r3, #2048	; 0x800
 8002202:	d11a      	bne.n	800223a <Vector118+0x9a>
 8002204:	f383 8811 	msr	BASEPRI, r3
  st_lld_serve_interrupt();
#endif
#endif

  OSAL_IRQ_EPILOGUE();
}
 8002208:	bd38      	pop	{r3, r4, r5, pc}
    _gpt_isr_invoke_cb(gptp);
 800220a:	782b      	ldrb	r3, [r5, #0]
 800220c:	2b04      	cmp	r3, #4
 800220e:	d107      	bne.n	8002220 <Vector118+0x80>
 8002210:	2302      	movs	r3, #2
 8002212:	702b      	strb	r3, [r5, #0]
  gptp->tim->CR1 = 0U;                          /* Initially stopped.       */
 8002214:	6010      	str	r0, [r2, #0]
  gptp->tim->SR  = 0U;                          /* Clear pending IRQs.      */
 8002216:	6110      	str	r0, [r2, #16]
  gptp->tim->DIER &= ~STM32_TIM_DIER_IRQ_MASK;
 8002218:	68d3      	ldr	r3, [r2, #12]
 800221a:	f023 03ff 	bic.w	r3, r3, #255	; 0xff
 800221e:	60d3      	str	r3, [r2, #12]
    _gpt_isr_invoke_cb(gptp);
 8002220:	686b      	ldr	r3, [r5, #4]
 8002222:	685b      	ldr	r3, [r3, #4]
 8002224:	2b00      	cmp	r3, #0
 8002226:	d0d7      	beq.n	80021d8 <Vector118+0x38>
 8002228:	4807      	ldr	r0, [pc, #28]	; (8002248 <Vector118+0xa8>)
 800222a:	4798      	blx	r3
 800222c:	e7d4      	b.n	80021d8 <Vector118+0x38>
    chSysHalt("SV#8");
 800222e:	4808      	ldr	r0, [pc, #32]	; (8002250 <Vector118+0xb0>)
 8002230:	f7fe fcce 	bl	8000bd0 <chSysHalt>
    chSysHalt("SV#9");
 8002234:	4807      	ldr	r0, [pc, #28]	; (8002254 <Vector118+0xb4>)
 8002236:	f7fe fccb 	bl	8000bd0 <chSysHalt>
 800223a:	e8bd 4038 	ldmia.w	sp!, {r3, r4, r5, lr}
 800223e:	f7ff bcaf 	b.w	8001ba0 <__port_irq_epilogue.part.0>
 8002242:	bf00      	nop
 8002244:	200009f0 	.word	0x200009f0
 8002248:	2000086c 	.word	0x2000086c
 800224c:	e000ed00 	.word	0xe000ed00
 8002250:	08004cd0 	.word	0x08004cd0
 8002254:	08004cd8 	.word	0x08004cd8
	...

08002260 <Vector88>:
/**
 * @brief   ADC interrupt handler.
 *
 * @isr
 */
OSAL_IRQ_HANDLER(STM32_ADC_HANDLER) {
 8002260:	b5f8      	push	{r3, r4, r5, r6, r7, lr}
 8002262:	2330      	movs	r3, #48	; 0x30
 8002264:	f383 8811 	msr	BASEPRI, r3
  if (unlikely((oip->dbg.isr_cnt < (cnt_t)0) ||
 8002268:	4c4b      	ldr	r4, [pc, #300]	; (8002398 <Vector88+0x138>)
 800226a:	f8d4 3088 	ldr.w	r3, [r4, #136]	; 0x88
 800226e:	2b00      	cmp	r3, #0
 8002270:	f2c0 8081 	blt.w	8002376 <Vector88+0x116>
 8002274:	f8d4 208c 	ldr.w	r2, [r4, #140]	; 0x8c
 8002278:	2a00      	cmp	r2, #0
 800227a:	d17c      	bne.n	8002376 <Vector88+0x116>
  oip->dbg.isr_cnt++;
 800227c:	3301      	adds	r3, #1
 800227e:	f8c4 3088 	str.w	r3, [r4, #136]	; 0x88
 8002282:	f382 8811 	msr	BASEPRI, r2
  if (adcp->grpp != NULL) {
 8002286:	4d45      	ldr	r5, [pc, #276]	; (800239c <Vector88+0x13c>)
  uint32_t sr;

  OSAL_IRQ_PROLOGUE();

#if STM32_ADC_USE_ADC1
  sr = ADC1->SR;
 8002288:	4b45      	ldr	r3, [pc, #276]	; (80023a0 <Vector88+0x140>)
  if (adcp->grpp != NULL) {
 800228a:	6928      	ldr	r0, [r5, #16]
  sr = ADC1->SR;
 800228c:	6819      	ldr	r1, [r3, #0]
  ADC1->SR = 0;
 800228e:	601a      	str	r2, [r3, #0]
  if (adcp->grpp != NULL) {
 8002290:	2800      	cmp	r0, #0
 8002292:	d04a      	beq.n	800232a <Vector88+0xca>
    if ((sr & ADC_SR_OVR) && (adcp->state == ADC_ACTIVE)) {
 8002294:	068a      	lsls	r2, r1, #26
 8002296:	d461      	bmi.n	800235c <Vector88+0xfc>
    if (sr & ADC_SR_AWD) {
 8002298:	07cb      	lsls	r3, r1, #31
 800229a:	d546      	bpl.n	800232a <Vector88+0xca>
 800229c:	2104      	movs	r1, #4
 *
 * @notapi
 */
void adc_lld_stop_conversion(ADCDriver *adcp) {

  dmaStreamDisable(adcp->dmastp);
 800229e:	6aef      	ldr	r7, [r5, #44]	; 0x2c
 80022a0:	683a      	ldr	r2, [r7, #0]
 80022a2:	6813      	ldr	r3, [r2, #0]
 80022a4:	f023 031f 	bic.w	r3, r3, #31
 80022a8:	6013      	str	r3, [r2, #0]
 80022aa:	6813      	ldr	r3, [r2, #0]
 80022ac:	f013 0301 	ands.w	r3, r3, #1
 80022b0:	d1fb      	bne.n	80022aa <Vector88+0x4a>
 80022b2:	f897 c009 	ldrb.w	ip, [r7, #9]
      _adc_isr_error_code(adcp, emask);
 80022b6:	6886      	ldr	r6, [r0, #8]
  adcp->adc->CR1 = 0;
 80022b8:	6aaa      	ldr	r2, [r5, #40]	; 0x28
  dmaStreamDisable(adcp->dmastp);
 80022ba:	687f      	ldr	r7, [r7, #4]
 80022bc:	203d      	movs	r0, #61	; 0x3d
 80022be:	fa00 f00c 	lsl.w	r0, r0, ip
 80022c2:	6038      	str	r0, [r7, #0]
  adcp->adc->CR1 = 0;
 80022c4:	6053      	str	r3, [r2, #4]
  /* Because ticket #822, preserving injected conversions.*/
  adcp->adc->CR2 &= ~(ADC_CR2_SWSTART);
 80022c6:	6893      	ldr	r3, [r2, #8]
 80022c8:	f023 4380 	bic.w	r3, r3, #1073741824	; 0x40000000
 80022cc:	6093      	str	r3, [r2, #8]
  adcp->adc->CR2 = ADC_CR2_ADON;
 80022ce:	2301      	movs	r3, #1
 80022d0:	6093      	str	r3, [r2, #8]
      _adc_isr_error_code(adcp, emask);
 80022d2:	2e00      	cmp	r6, #0
 80022d4:	d055      	beq.n	8002382 <Vector88+0x122>
 80022d6:	2305      	movs	r3, #5
 80022d8:	702b      	strb	r3, [r5, #0]
 80022da:	4830      	ldr	r0, [pc, #192]	; (800239c <Vector88+0x13c>)
 80022dc:	47b0      	blx	r6
 80022de:	782b      	ldrb	r3, [r5, #0]
 80022e0:	2b05      	cmp	r3, #5
 80022e2:	d04e      	beq.n	8002382 <Vector88+0x122>
 80022e4:	2330      	movs	r3, #48	; 0x30
 80022e6:	f383 8811 	msr	BASEPRI, r3
  if (unlikely((oip->dbg.isr_cnt <= (cnt_t)0) ||
 80022ea:	f8d4 3088 	ldr.w	r3, [r4, #136]	; 0x88
 80022ee:	2b00      	cmp	r3, #0
 80022f0:	dd4f      	ble.n	8002392 <Vector88+0x132>
 80022f2:	f8d4 308c 	ldr.w	r3, [r4, #140]	; 0x8c
 80022f6:	2b00      	cmp	r3, #0
 80022f8:	d14b      	bne.n	8002392 <Vector88+0x132>
  if (*trp != NULL) {
 80022fa:	6968      	ldr	r0, [r5, #20]
  oip->dbg.lock_cnt = (cnt_t)1;
 80022fc:	2201      	movs	r2, #1
 80022fe:	f8c4 208c 	str.w	r2, [r4, #140]	; 0x8c
 8002302:	b168      	cbz	r0, 8002320 <Vector88+0xc0>
    tp->u.rdymsg = msg;
 8002304:	f04f 32ff 	mov.w	r2, #4294967295
 8002308:	6282      	str	r2, [r0, #40]	; 0x28
    *trp = NULL;
 800230a:	616b      	str	r3, [r5, #20]
    (void) chSchReadyI(tp);
 800230c:	f7fe ff00 	bl	8001110 <chSchReadyI.isra.0>
  if (unlikely((oip->dbg.isr_cnt <= (cnt_t)0) ||
 8002310:	f8d4 3088 	ldr.w	r3, [r4, #136]	; 0x88
 8002314:	2b00      	cmp	r3, #0
 8002316:	dd39      	ble.n	800238c <Vector88+0x12c>
 8002318:	f8d4 308c 	ldr.w	r3, [r4, #140]	; 0x8c
 800231c:	2b00      	cmp	r3, #0
 800231e:	dd35      	ble.n	800238c <Vector88+0x12c>
  oip->dbg.lock_cnt = (cnt_t)0;
 8002320:	2300      	movs	r3, #0
 8002322:	f8c4 308c 	str.w	r3, [r4, #140]	; 0x8c
 8002326:	f383 8811 	msr	BASEPRI, r3
 800232a:	2230      	movs	r2, #48	; 0x30
 800232c:	f382 8811 	msr	BASEPRI, r2
  if (unlikely((oip->dbg.isr_cnt <= (cnt_t)0) ||
 8002330:	f8d4 3088 	ldr.w	r3, [r4, #136]	; 0x88
 8002334:	2b00      	cmp	r3, #0
 8002336:	dd21      	ble.n	800237c <Vector88+0x11c>
 8002338:	f8d4 108c 	ldr.w	r1, [r4, #140]	; 0x8c
 800233c:	b9f1      	cbnz	r1, 800237c <Vector88+0x11c>
  oip->dbg.isr_cnt--;
 800233e:	3b01      	subs	r3, #1
 8002340:	f8c4 3088 	str.w	r3, [r4, #136]	; 0x88
 8002344:	f381 8811 	msr	BASEPRI, r1
 8002348:	f382 8811 	msr	BASEPRI, r2
 800234c:	4b15      	ldr	r3, [pc, #84]	; (80023a4 <Vector88+0x144>)
 800234e:	685b      	ldr	r3, [r3, #4]
 8002350:	f413 6300 	ands.w	r3, r3, #2048	; 0x800
 8002354:	d10b      	bne.n	800236e <Vector88+0x10e>
 8002356:	f383 8811 	msr	BASEPRI, r3
}
 800235a:	bdf8      	pop	{r3, r4, r5, r6, r7, pc}
    if ((sr & ADC_SR_OVR) && (adcp->state == ADC_ACTIVE)) {
 800235c:	782b      	ldrb	r3, [r5, #0]
 800235e:	2b03      	cmp	r3, #3
 8002360:	d19a      	bne.n	8002298 <Vector88+0x38>
      emask |= ADC_ERR_OVERFLOW;
 8002362:	f011 0f01 	tst.w	r1, #1
 8002366:	bf14      	ite	ne
 8002368:	2106      	movne	r1, #6
 800236a:	2102      	moveq	r1, #2
 800236c:	e797      	b.n	800229e <Vector88+0x3e>
}
 800236e:	e8bd 40f8 	ldmia.w	sp!, {r3, r4, r5, r6, r7, lr}
 8002372:	f7ff bc15 	b.w	8001ba0 <__port_irq_epilogue.part.0>
    chSysHalt("SV#8");
 8002376:	480c      	ldr	r0, [pc, #48]	; (80023a8 <Vector88+0x148>)
 8002378:	f7fe fc2a 	bl	8000bd0 <chSysHalt>
    chSysHalt("SV#9");
 800237c:	480b      	ldr	r0, [pc, #44]	; (80023ac <Vector88+0x14c>)
 800237e:	f7fe fc27 	bl	8000bd0 <chSysHalt>
      _adc_isr_error_code(adcp, emask);
 8002382:	2202      	movs	r2, #2
 8002384:	2300      	movs	r3, #0
 8002386:	702a      	strb	r2, [r5, #0]
 8002388:	612b      	str	r3, [r5, #16]
 800238a:	e7ab      	b.n	80022e4 <Vector88+0x84>
    chSysHalt("SV#7");
 800238c:	4808      	ldr	r0, [pc, #32]	; (80023b0 <Vector88+0x150>)
 800238e:	f7fe fc1f 	bl	8000bd0 <chSysHalt>
    chSysHalt("SV#6");
 8002392:	4808      	ldr	r0, [pc, #32]	; (80023b4 <Vector88+0x154>)
 8002394:	f7fe fc1c 	bl	8000bd0 <chSysHalt>
 8002398:	200009f0 	.word	0x200009f0
 800239c:	20000808 	.word	0x20000808
 80023a0:	40012000 	.word	0x40012000
 80023a4:	e000ed00 	.word	0xe000ed00
 80023a8:	08004cd0 	.word	0x08004cd0
 80023ac:	08004cd8 	.word	0x08004cd8
 80023b0:	08004ca0 	.word	0x08004ca0
 80023b4:	08004c88 	.word	0x08004c88
	...

080023c0 <Vector6C>:
/**
 * @brief   DMA1 stream 0 shared interrupt handler.
 *
 * @isr
 */
OSAL_IRQ_HANDLER(STM32_DMA1_CH0_HANDLER) {
 80023c0:	b510      	push	{r4, lr}
 80023c2:	2330      	movs	r3, #48	; 0x30
 80023c4:	f383 8811 	msr	BASEPRI, r3
  if (unlikely((oip->dbg.isr_cnt < (cnt_t)0) ||
 80023c8:	4c1c      	ldr	r4, [pc, #112]	; (800243c <Vector6C+0x7c>)
 80023ca:	f8d4 3088 	ldr.w	r3, [r4, #136]	; 0x88
 80023ce:	2b00      	cmp	r3, #0
 80023d0:	db2a      	blt.n	8002428 <Vector6C+0x68>
 80023d2:	f8d4 208c 	ldr.w	r2, [r4, #140]	; 0x8c
 80023d6:	bb3a      	cbnz	r2, 8002428 <Vector6C+0x68>
  oip->dbg.isr_cnt++;
 80023d8:	3301      	adds	r3, #1
 80023da:	f8c4 3088 	str.w	r3, [r4, #136]	; 0x88
 80023de:	f382 8811 	msr	BASEPRI, r2
  uint32_t flags;

  OSAL_IRQ_PROLOGUE();

  flags = (DMA1->LISR >> 0U) & STM32_DMA_ISR_MASK;
 80023e2:	4b17      	ldr	r3, [pc, #92]	; (8002440 <Vector6C+0x80>)
  DMA1->LIFCR = flags << 0U;
  if (dma.streams[0].func)
 80023e4:	4817      	ldr	r0, [pc, #92]	; (8002444 <Vector6C+0x84>)
  flags = (DMA1->LISR >> 0U) & STM32_DMA_ISR_MASK;
 80023e6:	6819      	ldr	r1, [r3, #0]
  if (dma.streams[0].func)
 80023e8:	6842      	ldr	r2, [r0, #4]
  flags = (DMA1->LISR >> 0U) & STM32_DMA_ISR_MASK;
 80023ea:	f001 013d 	and.w	r1, r1, #61	; 0x3d
  DMA1->LIFCR = flags << 0U;
 80023ee:	6099      	str	r1, [r3, #8]
  if (dma.streams[0].func)
 80023f0:	b10a      	cbz	r2, 80023f6 <Vector6C+0x36>
    dma.streams[0].func(dma.streams[0].param, flags);
 80023f2:	6880      	ldr	r0, [r0, #8]
 80023f4:	4790      	blx	r2
 80023f6:	2230      	movs	r2, #48	; 0x30
 80023f8:	f382 8811 	msr	BASEPRI, r2
  if (unlikely((oip->dbg.isr_cnt <= (cnt_t)0) ||
 80023fc:	f8d4 3088 	ldr.w	r3, [r4, #136]	; 0x88
 8002400:	2b00      	cmp	r3, #0
 8002402:	dd14      	ble.n	800242e <Vector6C+0x6e>
 8002404:	f8d4 108c 	ldr.w	r1, [r4, #140]	; 0x8c
 8002408:	b989      	cbnz	r1, 800242e <Vector6C+0x6e>
  oip->dbg.isr_cnt--;
 800240a:	3b01      	subs	r3, #1
 800240c:	f8c4 3088 	str.w	r3, [r4, #136]	; 0x88
 8002410:	f381 8811 	msr	BASEPRI, r1
 8002414:	f382 8811 	msr	BASEPRI, r2
 8002418:	4b0b      	ldr	r3, [pc, #44]	; (8002448 <Vector6C+0x88>)
 800241a:	685b      	ldr	r3, [r3, #4]
 800241c:	f413 6300 	ands.w	r3, r3, #2048	; 0x800
 8002420:	d108      	bne.n	8002434 <Vector6C+0x74>
 8002422:	f383 8811 	msr	BASEPRI, r3

  OSAL_IRQ_EPILOGUE();
}
 8002426:	bd10      	pop	{r4, pc}
    chSysHalt("SV#8");
 8002428:	4808      	ldr	r0, [pc, #32]	; (800244c <Vector6C+0x8c>)
 800242a:	f7fe fbd1 	bl	8000bd0 <chSysHalt>
    chSysHalt("SV#9");
 800242e:	4808      	ldr	r0, [pc, #32]	; (8002450 <Vector6C+0x90>)
 8002430:	f7fe fbce 	bl	8000bd0 <chSysHalt>
 8002434:	e8bd 4010 	ldmia.w	sp!, {r4, lr}
 8002438:	f7ff bbb2 	b.w	8001ba0 <__port_irq_epilogue.part.0>
 800243c:	200009f0 	.word	0x200009f0
 8002440:	40026000 	.word	0x40026000
 8002444:	20000cf8 	.word	0x20000cf8
 8002448:	e000ed00 	.word	0xe000ed00
 800244c:	08004cd0 	.word	0x08004cd0
 8002450:	08004cd8 	.word	0x08004cd8
	...

08002460 <Vector70>:
/**
 * @brief   DMA1 stream 1 shared interrupt handler.
 *
 * @isr
 */
OSAL_IRQ_HANDLER(STM32_DMA1_CH1_HANDLER) {
 8002460:	b510      	push	{r4, lr}
 8002462:	2330      	movs	r3, #48	; 0x30
 8002464:	f383 8811 	msr	BASEPRI, r3
  if (unlikely((oip->dbg.isr_cnt < (cnt_t)0) ||
 8002468:	4c1d      	ldr	r4, [pc, #116]	; (80024e0 <Vector70+0x80>)
 800246a:	f8d4 3088 	ldr.w	r3, [r4, #136]	; 0x88
 800246e:	2b00      	cmp	r3, #0
 8002470:	db2c      	blt.n	80024cc <Vector70+0x6c>
 8002472:	f8d4 208c 	ldr.w	r2, [r4, #140]	; 0x8c
 8002476:	bb4a      	cbnz	r2, 80024cc <Vector70+0x6c>
  oip->dbg.isr_cnt++;
 8002478:	3301      	adds	r3, #1
 800247a:	f8c4 3088 	str.w	r3, [r4, #136]	; 0x88
 800247e:	f382 8811 	msr	BASEPRI, r2
  uint32_t flags;

  OSAL_IRQ_PROLOGUE();

  flags = (DMA1->LISR >> 6U) & STM32_DMA_ISR_MASK;
 8002482:	4b18      	ldr	r3, [pc, #96]	; (80024e4 <Vector70+0x84>)
  DMA1->LIFCR = flags << 6U;
  if (dma.streams[1].func)
 8002484:	4a18      	ldr	r2, [pc, #96]	; (80024e8 <Vector70+0x88>)
  flags = (DMA1->LISR >> 6U) & STM32_DMA_ISR_MASK;
 8002486:	6819      	ldr	r1, [r3, #0]
 8002488:	0989      	lsrs	r1, r1, #6
 800248a:	f001 013d 	and.w	r1, r1, #61	; 0x3d
  DMA1->LIFCR = flags << 6U;
 800248e:	0188      	lsls	r0, r1, #6
 8002490:	6098      	str	r0, [r3, #8]
  if (dma.streams[1].func)
 8002492:	68d3      	ldr	r3, [r2, #12]
 8002494:	b10b      	cbz	r3, 800249a <Vector70+0x3a>
    dma.streams[1].func(dma.streams[1].param, flags);
 8002496:	6910      	ldr	r0, [r2, #16]
 8002498:	4798      	blx	r3
 800249a:	2230      	movs	r2, #48	; 0x30
 800249c:	f382 8811 	msr	BASEPRI, r2
  if (unlikely((oip->dbg.isr_cnt <= (cnt_t)0) ||
 80024a0:	f8d4 3088 	ldr.w	r3, [r4, #136]	; 0x88
 80024a4:	2b00      	cmp	r3, #0
 80024a6:	dd14      	ble.n	80024d2 <Vector70+0x72>
 80024a8:	f8d4 108c 	ldr.w	r1, [r4, #140]	; 0x8c
 80024ac:	b989      	cbnz	r1, 80024d2 <Vector70+0x72>
  oip->dbg.isr_cnt--;
 80024ae:	3b01      	subs	r3, #1
 80024b0:	f8c4 3088 	str.w	r3, [r4, #136]	; 0x88
 80024b4:	f381 8811 	msr	BASEPRI, r1
 80024b8:	f382 8811 	msr	BASEPRI, r2
 80024bc:	4b0b      	ldr	r3, [pc, #44]	; (80024ec <Vector70+0x8c>)
 80024be:	685b      	ldr	r3, [r3, #4]
 80024c0:	f413 6300 	ands.w	r3, r3, #2048	; 0x800
 80024c4:	d108      	bne.n	80024d8 <Vector70+0x78>
 80024c6:	f383 8811 	msr	BASEPRI, r3

  OSAL_IRQ_EPILOGUE();
}
 80024ca:	bd10      	pop	{r4, pc}
    chSysHalt("SV#8");
 80024cc:	4808      	ldr	r0, [pc, #32]	; (80024f0 <Vector70+0x90>)
 80024ce:	f7fe fb7f 	bl	8000bd0 <chSysHalt>
    chSysHalt("SV#9");
 80024d2:	4808      	ldr	r0, [pc, #32]	; (80024f4 <Vector70+0x94>)
 80024d4:	f7fe fb7c 	bl	8000bd0 <chSysHalt>
 80024d8:	e8bd 4010 	ldmia.w	sp!, {r4, lr}
 80024dc:	f7ff bb60 	b.w	8001ba0 <__port_irq_epilogue.part.0>
 80024e0:	200009f0 	.word	0x200009f0
 80024e4:	40026000 	.word	0x40026000
 80024e8:	20000cf8 	.word	0x20000cf8
 80024ec:	e000ed00 	.word	0xe000ed00
 80024f0:	08004cd0 	.word	0x08004cd0
 80024f4:	08004cd8 	.word	0x08004cd8
	...

08002500 <Vector74>:
/**
 * @brief   DMA1 stream 2 shared interrupt handler.
 *
 * @isr
 */
OSAL_IRQ_HANDLER(STM32_DMA1_CH2_HANDLER) {
 8002500:	b510      	push	{r4, lr}
 8002502:	2330      	movs	r3, #48	; 0x30
 8002504:	f383 8811 	msr	BASEPRI, r3
  if (unlikely((oip->dbg.isr_cnt < (cnt_t)0) ||
 8002508:	4c1d      	ldr	r4, [pc, #116]	; (8002580 <Vector74+0x80>)
 800250a:	f8d4 3088 	ldr.w	r3, [r4, #136]	; 0x88
 800250e:	2b00      	cmp	r3, #0
 8002510:	db2c      	blt.n	800256c <Vector74+0x6c>
 8002512:	f8d4 208c 	ldr.w	r2, [r4, #140]	; 0x8c
 8002516:	bb4a      	cbnz	r2, 800256c <Vector74+0x6c>
  oip->dbg.isr_cnt++;
 8002518:	3301      	adds	r3, #1
 800251a:	f8c4 3088 	str.w	r3, [r4, #136]	; 0x88
 800251e:	f382 8811 	msr	BASEPRI, r2
  uint32_t flags;

  OSAL_IRQ_PROLOGUE();

  flags = (DMA1->LISR >> 16U) & STM32_DMA_ISR_MASK;
 8002522:	4b18      	ldr	r3, [pc, #96]	; (8002584 <Vector74+0x84>)
  DMA1->LIFCR = flags << 16U;
  if (dma.streams[2].func)
 8002524:	4a18      	ldr	r2, [pc, #96]	; (8002588 <Vector74+0x88>)
  flags = (DMA1->LISR >> 16U) & STM32_DMA_ISR_MASK;
 8002526:	6819      	ldr	r1, [r3, #0]
 8002528:	0c09      	lsrs	r1, r1, #16
 800252a:	f001 013d 	and.w	r1, r1, #61	; 0x3d
  DMA1->LIFCR = flags << 16U;
 800252e:	0408      	lsls	r0, r1, #16
 8002530:	6098      	str	r0, [r3, #8]
  if (dma.streams[2].func)
 8002532:	6953      	ldr	r3, [r2, #20]
 8002534:	b10b      	cbz	r3, 800253a <Vector74+0x3a>
    dma.streams[2].func(dma.streams[2].param, flags);
 8002536:	6990      	ldr	r0, [r2, #24]
 8002538:	4798      	blx	r3
 800253a:	2230      	movs	r2, #48	; 0x30
 800253c:	f382 8811 	msr	BASEPRI, r2
  if (unlikely((oip->dbg.isr_cnt <= (cnt_t)0) ||
 8002540:	f8d4 3088 	ldr.w	r3, [r4, #136]	; 0x88
 8002544:	2b00      	cmp	r3, #0
 8002546:	dd14      	ble.n	8002572 <Vector74+0x72>
 8002548:	f8d4 108c 	ldr.w	r1, [r4, #140]	; 0x8c
 800254c:	b989      	cbnz	r1, 8002572 <Vector74+0x72>
  oip->dbg.isr_cnt--;
 800254e:	3b01      	subs	r3, #1
 8002550:	f8c4 3088 	str.w	r3, [r4, #136]	; 0x88
 8002554:	f381 8811 	msr	BASEPRI, r1
 8002558:	f382 8811 	msr	BASEPRI, r2
 800255c:	4b0b      	ldr	r3, [pc, #44]	; (800258c <Vector74+0x8c>)
 800255e:	685b      	ldr	r3, [r3, #4]
 8002560:	f413 6300 	ands.w	r3, r3, #2048	; 0x800
 8002564:	d108      	bne.n	8002578 <Vector74+0x78>
 8002566:	f383 8811 	msr	BASEPRI, r3

  OSAL_IRQ_EPILOGUE();
}
 800256a:	bd10      	pop	{r4, pc}
    chSysHalt("SV#8");
 800256c:	4808      	ldr	r0, [pc, #32]	; (8002590 <Vector74+0x90>)
 800256e:	f7fe fb2f 	bl	8000bd0 <chSysHalt>
    chSysHalt("SV#9");
 8002572:	4808      	ldr	r0, [pc, #32]	; (8002594 <Vector74+0x94>)
 8002574:	f7fe fb2c 	bl	8000bd0 <chSysHalt>
 8002578:	e8bd 4010 	ldmia.w	sp!, {r4, lr}
 800257c:	f7ff bb10 	b.w	8001ba0 <__port_irq_epilogue.part.0>
 8002580:	200009f0 	.word	0x200009f0
 8002584:	40026000 	.word	0x40026000
 8002588:	20000cf8 	.word	0x20000cf8
 800258c:	e000ed00 	.word	0xe000ed00
 8002590:	08004cd0 	.word	0x08004cd0
 8002594:	08004cd8 	.word	0x08004cd8
	...

080025a0 <Vector78>:
/**
 * @brief   DMA1 stream 3 shared interrupt handler.
 *
 * @isr
 */
OSAL_IRQ_HANDLER(STM32_DMA1_CH3_HANDLER) {
 80025a0:	b510      	push	{r4, lr}
 80025a2:	2330      	movs	r3, #48	; 0x30
 80025a4:	f383 8811 	msr	BASEPRI, r3
  if (unlikely((oip->dbg.isr_cnt < (cnt_t)0) ||
 80025a8:	4c1d      	ldr	r4, [pc, #116]	; (8002620 <Vector78+0x80>)
 80025aa:	f8d4 3088 	ldr.w	r3, [r4, #136]	; 0x88
 80025ae:	2b00      	cmp	r3, #0
 80025b0:	db2c      	blt.n	800260c <Vector78+0x6c>
 80025b2:	f8d4 208c 	ldr.w	r2, [r4, #140]	; 0x8c
 80025b6:	bb4a      	cbnz	r2, 800260c <Vector78+0x6c>
  oip->dbg.isr_cnt++;
 80025b8:	3301      	adds	r3, #1
 80025ba:	f8c4 3088 	str.w	r3, [r4, #136]	; 0x88
 80025be:	f382 8811 	msr	BASEPRI, r2
  uint32_t flags;

  OSAL_IRQ_PROLOGUE();

  flags = (DMA1->LISR >> 22U) & STM32_DMA_ISR_MASK;
 80025c2:	4b18      	ldr	r3, [pc, #96]	; (8002624 <Vector78+0x84>)
  DMA1->LIFCR = flags << 22U;
  if (dma.streams[3].func)
 80025c4:	4a18      	ldr	r2, [pc, #96]	; (8002628 <Vector78+0x88>)
  flags = (DMA1->LISR >> 22U) & STM32_DMA_ISR_MASK;
 80025c6:	6819      	ldr	r1, [r3, #0]
 80025c8:	0d89      	lsrs	r1, r1, #22
 80025ca:	f001 013d 	and.w	r1, r1, #61	; 0x3d
  DMA1->LIFCR = flags << 22U;
 80025ce:	0588      	lsls	r0, r1, #22
 80025d0:	6098      	str	r0, [r3, #8]
  if (dma.streams[3].func)
 80025d2:	69d3      	ldr	r3, [r2, #28]
 80025d4:	b10b      	cbz	r3, 80025da <Vector78+0x3a>
    dma.streams[3].func(dma.streams[3].param, flags);
 80025d6:	6a10      	ldr	r0, [r2, #32]
 80025d8:	4798      	blx	r3
 80025da:	2230      	movs	r2, #48	; 0x30
 80025dc:	f382 8811 	msr	BASEPRI, r2
  if (unlikely((oip->dbg.isr_cnt <= (cnt_t)0) ||
 80025e0:	f8d4 3088 	ldr.w	r3, [r4, #136]	; 0x88
 80025e4:	2b00      	cmp	r3, #0
 80025e6:	dd14      	ble.n	8002612 <Vector78+0x72>
 80025e8:	f8d4 108c 	ldr.w	r1, [r4, #140]	; 0x8c
 80025ec:	b989      	cbnz	r1, 8002612 <Vector78+0x72>
  oip->dbg.isr_cnt--;
 80025ee:	3b01      	subs	r3, #1
 80025f0:	f8c4 3088 	str.w	r3, [r4, #136]	; 0x88
 80025f4:	f381 8811 	msr	BASEPRI, r1
 80025f8:	f382 8811 	msr	BASEPRI, r2
 80025fc:	4b0b      	ldr	r3, [pc, #44]	; (800262c <Vector78+0x8c>)
 80025fe:	685b      	ldr	r3, [r3, #4]
 8002600:	f413 6300 	ands.w	r3, r3, #2048	; 0x800
 8002604:	d108      	bne.n	8002618 <Vector78+0x78>
 8002606:	f383 8811 	msr	BASEPRI, r3

  OSAL_IRQ_EPILOGUE();
}
 800260a:	bd10      	pop	{r4, pc}
    chSysHalt("SV#8");
 800260c:	4808      	ldr	r0, [pc, #32]	; (8002630 <Vector78+0x90>)
 800260e:	f7fe fadf 	bl	8000bd0 <chSysHalt>
    chSysHalt("SV#9");
 8002612:	4808      	ldr	r0, [pc, #32]	; (8002634 <Vector78+0x94>)
 8002614:	f7fe fadc 	bl	8000bd0 <chSysHalt>
 8002618:	e8bd 4010 	ldmia.w	sp!, {r4, lr}
 800261c:	f7ff bac0 	b.w	8001ba0 <__port_irq_epilogue.part.0>
 8002620:	200009f0 	.word	0x200009f0
 8002624:	40026000 	.word	0x40026000
 8002628:	20000cf8 	.word	0x20000cf8
 800262c:	e000ed00 	.word	0xe000ed00
 8002630:	08004cd0 	.word	0x08004cd0
 8002634:	08004cd8 	.word	0x08004cd8
	...

08002640 <Vector7C>:
/**
 * @brief   DMA1 stream 4 shared interrupt handler.
 *
 * @isr
 */
OSAL_IRQ_HANDLER(STM32_DMA1_CH4_HANDLER) {
 8002640:	b510      	push	{r4, lr}
 8002642:	2330      	movs	r3, #48	; 0x30
 8002644:	f383 8811 	msr	BASEPRI, r3
  if (unlikely((oip->dbg.isr_cnt < (cnt_t)0) ||
 8002648:	4c1c      	ldr	r4, [pc, #112]	; (80026bc <Vector7C+0x7c>)
 800264a:	f8d4 3088 	ldr.w	r3, [r4, #136]	; 0x88
 800264e:	2b00      	cmp	r3, #0
 8002650:	db2a      	blt.n	80026a8 <Vector7C+0x68>
 8002652:	f8d4 208c 	ldr.w	r2, [r4, #140]	; 0x8c
 8002656:	bb3a      	cbnz	r2, 80026a8 <Vector7C+0x68>
  oip->dbg.isr_cnt++;
 8002658:	3301      	adds	r3, #1
 800265a:	f8c4 3088 	str.w	r3, [r4, #136]	; 0x88
 800265e:	f382 8811 	msr	BASEPRI, r2
  uint32_t flags;

  OSAL_IRQ_PROLOGUE();

  flags = (DMA1->HISR >> 0U) & STM32_DMA_ISR_MASK;
 8002662:	4b17      	ldr	r3, [pc, #92]	; (80026c0 <Vector7C+0x80>)
  DMA1->HIFCR = flags << 0U;
  if (dma.streams[4].func)
 8002664:	4817      	ldr	r0, [pc, #92]	; (80026c4 <Vector7C+0x84>)
  flags = (DMA1->HISR >> 0U) & STM32_DMA_ISR_MASK;
 8002666:	6859      	ldr	r1, [r3, #4]
  if (dma.streams[4].func)
 8002668:	6a42      	ldr	r2, [r0, #36]	; 0x24
  flags = (DMA1->HISR >> 0U) & STM32_DMA_ISR_MASK;
 800266a:	f001 013d 	and.w	r1, r1, #61	; 0x3d
  DMA1->HIFCR = flags << 0U;
 800266e:	60d9      	str	r1, [r3, #12]
  if (dma.streams[4].func)
 8002670:	b10a      	cbz	r2, 8002676 <Vector7C+0x36>
    dma.streams[4].func(dma.streams[4].param, flags);
 8002672:	6a80      	ldr	r0, [r0, #40]	; 0x28
 8002674:	4790      	blx	r2
 8002676:	2230      	movs	r2, #48	; 0x30
 8002678:	f382 8811 	msr	BASEPRI, r2
  if (unlikely((oip->dbg.isr_cnt <= (cnt_t)0) ||
 800267c:	f8d4 3088 	ldr.w	r3, [r4, #136]	; 0x88
 8002680:	2b00      	cmp	r3, #0
 8002682:	dd14      	ble.n	80026ae <Vector7C+0x6e>
 8002684:	f8d4 108c 	ldr.w	r1, [r4, #140]	; 0x8c
 8002688:	b989      	cbnz	r1, 80026ae <Vector7C+0x6e>
  oip->dbg.isr_cnt--;
 800268a:	3b01      	subs	r3, #1
 800268c:	f8c4 3088 	str.w	r3, [r4, #136]	; 0x88
 8002690:	f381 8811 	msr	BASEPRI, r1
 8002694:	f382 8811 	msr	BASEPRI, r2
 8002698:	4b0b      	ldr	r3, [pc, #44]	; (80026c8 <Vector7C+0x88>)
 800269a:	685b      	ldr	r3, [r3, #4]
 800269c:	f413 6300 	ands.w	r3, r3, #2048	; 0x800
 80026a0:	d108      	bne.n	80026b4 <Vector7C+0x74>
 80026a2:	f383 8811 	msr	BASEPRI, r3

  OSAL_IRQ_EPILOGUE();
}
 80026a6:	bd10      	pop	{r4, pc}
    chSysHalt("SV#8");
 80026a8:	4808      	ldr	r0, [pc, #32]	; (80026cc <Vector7C+0x8c>)
 80026aa:	f7fe fa91 	bl	8000bd0 <chSysHalt>
    chSysHalt("SV#9");
 80026ae:	4808      	ldr	r0, [pc, #32]	; (80026d0 <Vector7C+0x90>)
 80026b0:	f7fe fa8e 	bl	8000bd0 <chSysHalt>
 80026b4:	e8bd 4010 	ldmia.w	sp!, {r4, lr}
 80026b8:	f7ff ba72 	b.w	8001ba0 <__port_irq_epilogue.part.0>
 80026bc:	200009f0 	.word	0x200009f0
 80026c0:	40026000 	.word	0x40026000
 80026c4:	20000cf8 	.word	0x20000cf8
 80026c8:	e000ed00 	.word	0xe000ed00
 80026cc:	08004cd0 	.word	0x08004cd0
 80026d0:	08004cd8 	.word	0x08004cd8
	...

080026e0 <Vector80>:
/**
 * @brief   DMA1 stream 5 shared interrupt handler.
 *
 * @isr
 */
OSAL_IRQ_HANDLER(STM32_DMA1_CH5_HANDLER) {
 80026e0:	b510      	push	{r4, lr}
 80026e2:	2330      	movs	r3, #48	; 0x30
 80026e4:	f383 8811 	msr	BASEPRI, r3
  if (unlikely((oip->dbg.isr_cnt < (cnt_t)0) ||
 80026e8:	4c1d      	ldr	r4, [pc, #116]	; (8002760 <Vector80+0x80>)
 80026ea:	f8d4 3088 	ldr.w	r3, [r4, #136]	; 0x88
 80026ee:	2b00      	cmp	r3, #0
 80026f0:	db2c      	blt.n	800274c <Vector80+0x6c>
 80026f2:	f8d4 208c 	ldr.w	r2, [r4, #140]	; 0x8c
 80026f6:	bb4a      	cbnz	r2, 800274c <Vector80+0x6c>
  oip->dbg.isr_cnt++;
 80026f8:	3301      	adds	r3, #1
 80026fa:	f8c4 3088 	str.w	r3, [r4, #136]	; 0x88
 80026fe:	f382 8811 	msr	BASEPRI, r2
  uint32_t flags;

  OSAL_IRQ_PROLOGUE();

  flags = (DMA1->HISR >> 6U) & STM32_DMA_ISR_MASK;
 8002702:	4b18      	ldr	r3, [pc, #96]	; (8002764 <Vector80+0x84>)
  DMA1->HIFCR = flags << 6U;
  if (dma.streams[5].func)
 8002704:	4a18      	ldr	r2, [pc, #96]	; (8002768 <Vector80+0x88>)
  flags = (DMA1->HISR >> 6U) & STM32_DMA_ISR_MASK;
 8002706:	6859      	ldr	r1, [r3, #4]
 8002708:	0989      	lsrs	r1, r1, #6
 800270a:	f001 013d 	and.w	r1, r1, #61	; 0x3d
  DMA1->HIFCR = flags << 6U;
 800270e:	0188      	lsls	r0, r1, #6
 8002710:	60d8      	str	r0, [r3, #12]
  if (dma.streams[5].func)
 8002712:	6ad3      	ldr	r3, [r2, #44]	; 0x2c
 8002714:	b10b      	cbz	r3, 800271a <Vector80+0x3a>
    dma.streams[5].func(dma.streams[5].param, flags);
 8002716:	6b10      	ldr	r0, [r2, #48]	; 0x30
 8002718:	4798      	blx	r3
 800271a:	2230      	movs	r2, #48	; 0x30
 800271c:	f382 8811 	msr	BASEPRI, r2
  if (unlikely((oip->dbg.isr_cnt <= (cnt_t)0) ||
 8002720:	f8d4 3088 	ldr.w	r3, [r4, #136]	; 0x88
 8002724:	2b00      	cmp	r3, #0
 8002726:	dd14      	ble.n	8002752 <Vector80+0x72>
 8002728:	f8d4 108c 	ldr.w	r1, [r4, #140]	; 0x8c
 800272c:	b989      	cbnz	r1, 8002752 <Vector80+0x72>
  oip->dbg.isr_cnt--;
 800272e:	3b01      	subs	r3, #1
 8002730:	f8c4 3088 	str.w	r3, [r4, #136]	; 0x88
 8002734:	f381 8811 	msr	BASEPRI, r1
 8002738:	f382 8811 	msr	BASEPRI, r2
 800273c:	4b0b      	ldr	r3, [pc, #44]	; (800276c <Vector80+0x8c>)
 800273e:	685b      	ldr	r3, [r3, #4]
 8002740:	f413 6300 	ands.w	r3, r3, #2048	; 0x800
 8002744:	d108      	bne.n	8002758 <Vector80+0x78>
 8002746:	f383 8811 	msr	BASEPRI, r3

  OSAL_IRQ_EPILOGUE();
}
 800274a:	bd10      	pop	{r4, pc}
    chSysHalt("SV#8");
 800274c:	4808      	ldr	r0, [pc, #32]	; (8002770 <Vector80+0x90>)
 800274e:	f7fe fa3f 	bl	8000bd0 <chSysHalt>
    chSysHalt("SV#9");
 8002752:	4808      	ldr	r0, [pc, #32]	; (8002774 <Vector80+0x94>)
 8002754:	f7fe fa3c 	bl	8000bd0 <chSysHalt>
 8002758:	e8bd 4010 	ldmia.w	sp!, {r4, lr}
 800275c:	f7ff ba20 	b.w	8001ba0 <__port_irq_epilogue.part.0>
 8002760:	200009f0 	.word	0x200009f0
 8002764:	40026000 	.word	0x40026000
 8002768:	20000cf8 	.word	0x20000cf8
 800276c:	e000ed00 	.word	0xe000ed00
 8002770:	08004cd0 	.word	0x08004cd0
 8002774:	08004cd8 	.word	0x08004cd8
	...

08002780 <Vector84>:
/**
 * @brief   DMA1 stream 6 shared interrupt handler.
 *
 * @isr
 */
OSAL_IRQ_HANDLER(STM32_DMA1_CH6_HANDLER) {
 8002780:	b510      	push	{r4, lr}
 8002782:	2330      	movs	r3, #48	; 0x30
 8002784:	f383 8811 	msr	BASEPRI, r3
  if (unlikely((oip->dbg.isr_cnt < (cnt_t)0) ||
 8002788:	4c1d      	ldr	r4, [pc, #116]	; (8002800 <Vector84+0x80>)
 800278a:	f8d4 3088 	ldr.w	r3, [r4, #136]	; 0x88
 800278e:	2b00      	cmp	r3, #0
 8002790:	db2c      	blt.n	80027ec <Vector84+0x6c>
 8002792:	f8d4 208c 	ldr.w	r2, [r4, #140]	; 0x8c
 8002796:	bb4a      	cbnz	r2, 80027ec <Vector84+0x6c>
  oip->dbg.isr_cnt++;
 8002798:	3301      	adds	r3, #1
 800279a:	f8c4 3088 	str.w	r3, [r4, #136]	; 0x88
 800279e:	f382 8811 	msr	BASEPRI, r2
  uint32_t flags;

  OSAL_IRQ_PROLOGUE();

  flags = (DMA1->HISR >> 16U) & STM32_DMA_ISR_MASK;
 80027a2:	4b18      	ldr	r3, [pc, #96]	; (8002804 <Vector84+0x84>)
  DMA1->HIFCR = flags << 16U;
  if (dma.streams[6].func)
 80027a4:	4a18      	ldr	r2, [pc, #96]	; (8002808 <Vector84+0x88>)
  flags = (DMA1->HISR >> 16U) & STM32_DMA_ISR_MASK;
 80027a6:	6859      	ldr	r1, [r3, #4]
 80027a8:	0c09      	lsrs	r1, r1, #16
 80027aa:	f001 013d 	and.w	r1, r1, #61	; 0x3d
  DMA1->HIFCR = flags << 16U;
 80027ae:	0408      	lsls	r0, r1, #16
 80027b0:	60d8      	str	r0, [r3, #12]
  if (dma.streams[6].func)
 80027b2:	6b53      	ldr	r3, [r2, #52]	; 0x34
 80027b4:	b10b      	cbz	r3, 80027ba <Vector84+0x3a>
    dma.streams[6].func(dma.streams[6].param, flags);
 80027b6:	6b90      	ldr	r0, [r2, #56]	; 0x38
 80027b8:	4798      	blx	r3
 80027ba:	2230      	movs	r2, #48	; 0x30
 80027bc:	f382 8811 	msr	BASEPRI, r2
  if (unlikely((oip->dbg.isr_cnt <= (cnt_t)0) ||
 80027c0:	f8d4 3088 	ldr.w	r3, [r4, #136]	; 0x88
 80027c4:	2b00      	cmp	r3, #0
 80027c6:	dd14      	ble.n	80027f2 <Vector84+0x72>
 80027c8:	f8d4 108c 	ldr.w	r1, [r4, #140]	; 0x8c
 80027cc:	b989      	cbnz	r1, 80027f2 <Vector84+0x72>
  oip->dbg.isr_cnt--;
 80027ce:	3b01      	subs	r3, #1
 80027d0:	f8c4 3088 	str.w	r3, [r4, #136]	; 0x88
 80027d4:	f381 8811 	msr	BASEPRI, r1
 80027d8:	f382 8811 	msr	BASEPRI, r2
 80027dc:	4b0b      	ldr	r3, [pc, #44]	; (800280c <Vector84+0x8c>)
 80027de:	685b      	ldr	r3, [r3, #4]
 80027e0:	f413 6300 	ands.w	r3, r3, #2048	; 0x800
 80027e4:	d108      	bne.n	80027f8 <Vector84+0x78>
 80027e6:	f383 8811 	msr	BASEPRI, r3

  OSAL_IRQ_EPILOGUE();
}
 80027ea:	bd10      	pop	{r4, pc}
    chSysHalt("SV#8");
 80027ec:	4808      	ldr	r0, [pc, #32]	; (8002810 <Vector84+0x90>)
 80027ee:	f7fe f9ef 	bl	8000bd0 <chSysHalt>
    chSysHalt("SV#9");
 80027f2:	4808      	ldr	r0, [pc, #32]	; (8002814 <Vector84+0x94>)
 80027f4:	f7fe f9ec 	bl	8000bd0 <chSysHalt>
 80027f8:	e8bd 4010 	ldmia.w	sp!, {r4, lr}
 80027fc:	f7ff b9d0 	b.w	8001ba0 <__port_irq_epilogue.part.0>
 8002800:	200009f0 	.word	0x200009f0
 8002804:	40026000 	.word	0x40026000
 8002808:	20000cf8 	.word	0x20000cf8
 800280c:	e000ed00 	.word	0xe000ed00
 8002810:	08004cd0 	.word	0x08004cd0
 8002814:	08004cd8 	.word	0x08004cd8
	...

08002820 <VectorFC>:
/**
 * @brief   DMA1 stream 7 shared interrupt handler.
 *
 * @isr
 */
OSAL_IRQ_HANDLER(STM32_DMA1_CH7_HANDLER) {
 8002820:	b510      	push	{r4, lr}
 8002822:	2330      	movs	r3, #48	; 0x30
 8002824:	f383 8811 	msr	BASEPRI, r3
  if (unlikely((oip->dbg.isr_cnt < (cnt_t)0) ||
 8002828:	4c1d      	ldr	r4, [pc, #116]	; (80028a0 <VectorFC+0x80>)
 800282a:	f8d4 3088 	ldr.w	r3, [r4, #136]	; 0x88
 800282e:	2b00      	cmp	r3, #0
 8002830:	db2c      	blt.n	800288c <VectorFC+0x6c>
 8002832:	f8d4 208c 	ldr.w	r2, [r4, #140]	; 0x8c
 8002836:	bb4a      	cbnz	r2, 800288c <VectorFC+0x6c>
  oip->dbg.isr_cnt++;
 8002838:	3301      	adds	r3, #1
 800283a:	f8c4 3088 	str.w	r3, [r4, #136]	; 0x88
 800283e:	f382 8811 	msr	BASEPRI, r2
  uint32_t flags;

  OSAL_IRQ_PROLOGUE();

  flags = (DMA1->HISR >> 22U) & STM32_DMA_ISR_MASK;
 8002842:	4b18      	ldr	r3, [pc, #96]	; (80028a4 <VectorFC+0x84>)
  DMA1->HIFCR = flags << 22U;
  if (dma.streams[7].func)
 8002844:	4a18      	ldr	r2, [pc, #96]	; (80028a8 <VectorFC+0x88>)
  flags = (DMA1->HISR >> 22U) & STM32_DMA_ISR_MASK;
 8002846:	6859      	ldr	r1, [r3, #4]
 8002848:	0d89      	lsrs	r1, r1, #22
 800284a:	f001 013d 	and.w	r1, r1, #61	; 0x3d
  DMA1->HIFCR = flags << 22U;
 800284e:	0588      	lsls	r0, r1, #22
 8002850:	60d8      	str	r0, [r3, #12]
  if (dma.streams[7].func)
 8002852:	6bd3      	ldr	r3, [r2, #60]	; 0x3c
 8002854:	b10b      	cbz	r3, 800285a <VectorFC+0x3a>
    dma.streams[7].func(dma.streams[7].param, flags);
 8002856:	6c10      	ldr	r0, [r2, #64]	; 0x40
 8002858:	4798      	blx	r3
 800285a:	2230      	movs	r2, #48	; 0x30
 800285c:	f382 8811 	msr	BASEPRI, r2
  if (unlikely((oip->dbg.isr_cnt <= (cnt_t)0) ||
 8002860:	f8d4 3088 	ldr.w	r3, [r4, #136]	; 0x88
 8002864:	2b00      	cmp	r3, #0
 8002866:	dd14      	ble.n	8002892 <VectorFC+0x72>
 8002868:	f8d4 108c 	ldr.w	r1, [r4, #140]	; 0x8c
 800286c:	b989      	cbnz	r1, 8002892 <VectorFC+0x72>
  oip->dbg.isr_cnt--;
 800286e:	3b01      	subs	r3, #1
 8002870:	f8c4 3088 	str.w	r3, [r4, #136]	; 0x88
 8002874:	f381 8811 	msr	BASEPRI, r1
 8002878:	f382 8811 	msr	BASEPRI, r2
 800287c:	4b0b      	ldr	r3, [pc, #44]	; (80028ac <VectorFC+0x8c>)
 800287e:	685b      	ldr	r3, [r3, #4]
 8002880:	f413 6300 	ands.w	r3, r3, #2048	; 0x800
 8002884:	d108      	bne.n	8002898 <VectorFC+0x78>
 8002886:	f383 8811 	msr	BASEPRI, r3

  OSAL_IRQ_EPILOGUE();
}
 800288a:	bd10      	pop	{r4, pc}
    chSysHalt("SV#8");
 800288c:	4808      	ldr	r0, [pc, #32]	; (80028b0 <VectorFC+0x90>)
 800288e:	f7fe f99f 	bl	8000bd0 <chSysHalt>
    chSysHalt("SV#9");
 8002892:	4808      	ldr	r0, [pc, #32]	; (80028b4 <VectorFC+0x94>)
 8002894:	f7fe f99c 	bl	8000bd0 <chSysHalt>
 8002898:	e8bd 4010 	ldmia.w	sp!, {r4, lr}
 800289c:	f7ff b980 	b.w	8001ba0 <__port_irq_epilogue.part.0>
 80028a0:	200009f0 	.word	0x200009f0
 80028a4:	40026000 	.word	0x40026000
 80028a8:	20000cf8 	.word	0x20000cf8
 80028ac:	e000ed00 	.word	0xe000ed00
 80028b0:	08004cd0 	.word	0x08004cd0
 80028b4:	08004cd8 	.word	0x08004cd8
	...

080028c0 <Vector120>:
/**
 * @brief   DMA2 stream 0 shared interrupt handler.
 *
 * @isr
 */
OSAL_IRQ_HANDLER(STM32_DMA2_CH0_HANDLER) {
 80028c0:	b510      	push	{r4, lr}
 80028c2:	2330      	movs	r3, #48	; 0x30
 80028c4:	f383 8811 	msr	BASEPRI, r3
  if (unlikely((oip->dbg.isr_cnt < (cnt_t)0) ||
 80028c8:	4c1c      	ldr	r4, [pc, #112]	; (800293c <Vector120+0x7c>)
 80028ca:	f8d4 3088 	ldr.w	r3, [r4, #136]	; 0x88
 80028ce:	2b00      	cmp	r3, #0
 80028d0:	db2a      	blt.n	8002928 <Vector120+0x68>
 80028d2:	f8d4 208c 	ldr.w	r2, [r4, #140]	; 0x8c
 80028d6:	bb3a      	cbnz	r2, 8002928 <Vector120+0x68>
  oip->dbg.isr_cnt++;
 80028d8:	3301      	adds	r3, #1
 80028da:	f8c4 3088 	str.w	r3, [r4, #136]	; 0x88
 80028de:	f382 8811 	msr	BASEPRI, r2
  uint32_t flags;

  OSAL_IRQ_PROLOGUE();

  flags = (DMA2->LISR >> 0U) & STM32_DMA_ISR_MASK;
 80028e2:	4b17      	ldr	r3, [pc, #92]	; (8002940 <Vector120+0x80>)
  DMA2->LIFCR = flags << 0U;
  if (dma.streams[8].func)
 80028e4:	4817      	ldr	r0, [pc, #92]	; (8002944 <Vector120+0x84>)
  flags = (DMA2->LISR >> 0U) & STM32_DMA_ISR_MASK;
 80028e6:	6819      	ldr	r1, [r3, #0]
  if (dma.streams[8].func)
 80028e8:	6c42      	ldr	r2, [r0, #68]	; 0x44
  flags = (DMA2->LISR >> 0U) & STM32_DMA_ISR_MASK;
 80028ea:	f001 013d 	and.w	r1, r1, #61	; 0x3d
  DMA2->LIFCR = flags << 0U;
 80028ee:	6099      	str	r1, [r3, #8]
  if (dma.streams[8].func)
 80028f0:	b10a      	cbz	r2, 80028f6 <Vector120+0x36>
    dma.streams[8].func(dma.streams[8].param, flags);
 80028f2:	6c80      	ldr	r0, [r0, #72]	; 0x48
 80028f4:	4790      	blx	r2
 80028f6:	2230      	movs	r2, #48	; 0x30
 80028f8:	f382 8811 	msr	BASEPRI, r2
  if (unlikely((oip->dbg.isr_cnt <= (cnt_t)0) ||
 80028fc:	f8d4 3088 	ldr.w	r3, [r4, #136]	; 0x88
 8002900:	2b00      	cmp	r3, #0
 8002902:	dd14      	ble.n	800292e <Vector120+0x6e>
 8002904:	f8d4 108c 	ldr.w	r1, [r4, #140]	; 0x8c
 8002908:	b989      	cbnz	r1, 800292e <Vector120+0x6e>
  oip->dbg.isr_cnt--;
 800290a:	3b01      	subs	r3, #1
 800290c:	f8c4 3088 	str.w	r3, [r4, #136]	; 0x88
 8002910:	f381 8811 	msr	BASEPRI, r1
 8002914:	f382 8811 	msr	BASEPRI, r2
 8002918:	4b0b      	ldr	r3, [pc, #44]	; (8002948 <Vector120+0x88>)
 800291a:	685b      	ldr	r3, [r3, #4]
 800291c:	f413 6300 	ands.w	r3, r3, #2048	; 0x800
 8002920:	d108      	bne.n	8002934 <Vector120+0x74>
 8002922:	f383 8811 	msr	BASEPRI, r3

  OSAL_IRQ_EPILOGUE();
}
 8002926:	bd10      	pop	{r4, pc}
    chSysHalt("SV#8");
 8002928:	4808      	ldr	r0, [pc, #32]	; (800294c <Vector120+0x8c>)
 800292a:	f7fe f951 	bl	8000bd0 <chSysHalt>
    chSysHalt("SV#9");
 800292e:	4808      	ldr	r0, [pc, #32]	; (8002950 <Vector120+0x90>)
 8002930:	f7fe f94e 	bl	8000bd0 <chSysHalt>
 8002934:	e8bd 4010 	ldmia.w	sp!, {r4, lr}
 8002938:	f7ff b932 	b.w	8001ba0 <__port_irq_epilogue.part.0>
 800293c:	200009f0 	.word	0x200009f0
 8002940:	40026400 	.word	0x40026400
 8002944:	20000cf8 	.word	0x20000cf8
 8002948:	e000ed00 	.word	0xe000ed00
 800294c:	08004cd0 	.word	0x08004cd0
 8002950:	08004cd8 	.word	0x08004cd8
	...

08002960 <Vector124>:
/**
 * @brief   DMA2 stream 1 shared interrupt handler.
 *
 * @isr
 */
OSAL_IRQ_HANDLER(STM32_DMA2_CH1_HANDLER) {
 8002960:	b510      	push	{r4, lr}
 8002962:	2330      	movs	r3, #48	; 0x30
 8002964:	f383 8811 	msr	BASEPRI, r3
  if (unlikely((oip->dbg.isr_cnt < (cnt_t)0) ||
 8002968:	4c1d      	ldr	r4, [pc, #116]	; (80029e0 <Vector124+0x80>)
 800296a:	f8d4 3088 	ldr.w	r3, [r4, #136]	; 0x88
 800296e:	2b00      	cmp	r3, #0
 8002970:	db2c      	blt.n	80029cc <Vector124+0x6c>
 8002972:	f8d4 208c 	ldr.w	r2, [r4, #140]	; 0x8c
 8002976:	bb4a      	cbnz	r2, 80029cc <Vector124+0x6c>
  oip->dbg.isr_cnt++;
 8002978:	3301      	adds	r3, #1
 800297a:	f8c4 3088 	str.w	r3, [r4, #136]	; 0x88
 800297e:	f382 8811 	msr	BASEPRI, r2
  uint32_t flags;

  OSAL_IRQ_PROLOGUE();

  flags = (DMA2->LISR >> 6U) & STM32_DMA_ISR_MASK;
 8002982:	4b18      	ldr	r3, [pc, #96]	; (80029e4 <Vector124+0x84>)
  DMA2->LIFCR = flags << 6U;
  if (dma.streams[9].func)
 8002984:	4a18      	ldr	r2, [pc, #96]	; (80029e8 <Vector124+0x88>)
  flags = (DMA2->LISR >> 6U) & STM32_DMA_ISR_MASK;
 8002986:	6819      	ldr	r1, [r3, #0]
 8002988:	0989      	lsrs	r1, r1, #6
 800298a:	f001 013d 	and.w	r1, r1, #61	; 0x3d
  DMA2->LIFCR = flags << 6U;
 800298e:	0188      	lsls	r0, r1, #6
 8002990:	6098      	str	r0, [r3, #8]
  if (dma.streams[9].func)
 8002992:	6cd3      	ldr	r3, [r2, #76]	; 0x4c
 8002994:	b10b      	cbz	r3, 800299a <Vector124+0x3a>
    dma.streams[9].func(dma.streams[9].param, flags);
 8002996:	6d10      	ldr	r0, [r2, #80]	; 0x50
 8002998:	4798      	blx	r3
 800299a:	2230      	movs	r2, #48	; 0x30
 800299c:	f382 8811 	msr	BASEPRI, r2
  if (unlikely((oip->dbg.isr_cnt <= (cnt_t)0) ||
 80029a0:	f8d4 3088 	ldr.w	r3, [r4, #136]	; 0x88
 80029a4:	2b00      	cmp	r3, #0
 80029a6:	dd14      	ble.n	80029d2 <Vector124+0x72>
 80029a8:	f8d4 108c 	ldr.w	r1, [r4, #140]	; 0x8c
 80029ac:	b989      	cbnz	r1, 80029d2 <Vector124+0x72>
  oip->dbg.isr_cnt--;
 80029ae:	3b01      	subs	r3, #1
 80029b0:	f8c4 3088 	str.w	r3, [r4, #136]	; 0x88
 80029b4:	f381 8811 	msr	BASEPRI, r1
 80029b8:	f382 8811 	msr	BASEPRI, r2
 80029bc:	4b0b      	ldr	r3, [pc, #44]	; (80029ec <Vector124+0x8c>)
 80029be:	685b      	ldr	r3, [r3, #4]
 80029c0:	f413 6300 	ands.w	r3, r3, #2048	; 0x800
 80029c4:	d108      	bne.n	80029d8 <Vector124+0x78>
 80029c6:	f383 8811 	msr	BASEPRI, r3

  OSAL_IRQ_EPILOGUE();
}
 80029ca:	bd10      	pop	{r4, pc}
    chSysHalt("SV#8");
 80029cc:	4808      	ldr	r0, [pc, #32]	; (80029f0 <Vector124+0x90>)
 80029ce:	f7fe f8ff 	bl	8000bd0 <chSysHalt>
    chSysHalt("SV#9");
 80029d2:	4808      	ldr	r0, [pc, #32]	; (80029f4 <Vector124+0x94>)
 80029d4:	f7fe f8fc 	bl	8000bd0 <chSysHalt>
 80029d8:	e8bd 4010 	ldmia.w	sp!, {r4, lr}
 80029dc:	f7ff b8e0 	b.w	8001ba0 <__port_irq_epilogue.part.0>
 80029e0:	200009f0 	.word	0x200009f0
 80029e4:	40026400 	.word	0x40026400
 80029e8:	20000cf8 	.word	0x20000cf8
 80029ec:	e000ed00 	.word	0xe000ed00
 80029f0:	08004cd0 	.word	0x08004cd0
 80029f4:	08004cd8 	.word	0x08004cd8
	...

08002a00 <Vector128>:
/**
 * @brief   DMA2 stream 2 shared interrupt handler.
 *
 * @isr
 */
OSAL_IRQ_HANDLER(STM32_DMA2_CH2_HANDLER) {
 8002a00:	b510      	push	{r4, lr}
 8002a02:	2330      	movs	r3, #48	; 0x30
 8002a04:	f383 8811 	msr	BASEPRI, r3
  if (unlikely((oip->dbg.isr_cnt < (cnt_t)0) ||
 8002a08:	4c1d      	ldr	r4, [pc, #116]	; (8002a80 <Vector128+0x80>)
 8002a0a:	f8d4 3088 	ldr.w	r3, [r4, #136]	; 0x88
 8002a0e:	2b00      	cmp	r3, #0
 8002a10:	db2c      	blt.n	8002a6c <Vector128+0x6c>
 8002a12:	f8d4 208c 	ldr.w	r2, [r4, #140]	; 0x8c
 8002a16:	bb4a      	cbnz	r2, 8002a6c <Vector128+0x6c>
  oip->dbg.isr_cnt++;
 8002a18:	3301      	adds	r3, #1
 8002a1a:	f8c4 3088 	str.w	r3, [r4, #136]	; 0x88
 8002a1e:	f382 8811 	msr	BASEPRI, r2
  uint32_t flags;

  OSAL_IRQ_PROLOGUE();

  flags = (DMA2->LISR >> 16U) & STM32_DMA_ISR_MASK;
 8002a22:	4b18      	ldr	r3, [pc, #96]	; (8002a84 <Vector128+0x84>)
  DMA2->LIFCR = flags << 16U;
  if (dma.streams[10].func)
 8002a24:	4a18      	ldr	r2, [pc, #96]	; (8002a88 <Vector128+0x88>)
  flags = (DMA2->LISR >> 16U) & STM32_DMA_ISR_MASK;
 8002a26:	6819      	ldr	r1, [r3, #0]
 8002a28:	0c09      	lsrs	r1, r1, #16
 8002a2a:	f001 013d 	and.w	r1, r1, #61	; 0x3d
  DMA2->LIFCR = flags << 16U;
 8002a2e:	0408      	lsls	r0, r1, #16
 8002a30:	6098      	str	r0, [r3, #8]
  if (dma.streams[10].func)
 8002a32:	6d53      	ldr	r3, [r2, #84]	; 0x54
 8002a34:	b10b      	cbz	r3, 8002a3a <Vector128+0x3a>
    dma.streams[10].func(dma.streams[10].param, flags);
 8002a36:	6d90      	ldr	r0, [r2, #88]	; 0x58
 8002a38:	4798      	blx	r3
 8002a3a:	2230      	movs	r2, #48	; 0x30
 8002a3c:	f382 8811 	msr	BASEPRI, r2
  if (unlikely((oip->dbg.isr_cnt <= (cnt_t)0) ||
 8002a40:	f8d4 3088 	ldr.w	r3, [r4, #136]	; 0x88
 8002a44:	2b00      	cmp	r3, #0
 8002a46:	dd14      	ble.n	8002a72 <Vector128+0x72>
 8002a48:	f8d4 108c 	ldr.w	r1, [r4, #140]	; 0x8c
 8002a4c:	b989      	cbnz	r1, 8002a72 <Vector128+0x72>
  oip->dbg.isr_cnt--;
 8002a4e:	3b01      	subs	r3, #1
 8002a50:	f8c4 3088 	str.w	r3, [r4, #136]	; 0x88
 8002a54:	f381 8811 	msr	BASEPRI, r1
 8002a58:	f382 8811 	msr	BASEPRI, r2
 8002a5c:	4b0b      	ldr	r3, [pc, #44]	; (8002a8c <Vector128+0x8c>)
 8002a5e:	685b      	ldr	r3, [r3, #4]
 8002a60:	f413 6300 	ands.w	r3, r3, #2048	; 0x800
 8002a64:	d108      	bne.n	8002a78 <Vector128+0x78>
 8002a66:	f383 8811 	msr	BASEPRI, r3

  OSAL_IRQ_EPILOGUE();
}
 8002a6a:	bd10      	pop	{r4, pc}
    chSysHalt("SV#8");
 8002a6c:	4808      	ldr	r0, [pc, #32]	; (8002a90 <Vector128+0x90>)
 8002a6e:	f7fe f8af 	bl	8000bd0 <chSysHalt>
    chSysHalt("SV#9");
 8002a72:	4808      	ldr	r0, [pc, #32]	; (8002a94 <Vector128+0x94>)
 8002a74:	f7fe f8ac 	bl	8000bd0 <chSysHalt>
 8002a78:	e8bd 4010 	ldmia.w	sp!, {r4, lr}
 8002a7c:	f7ff b890 	b.w	8001ba0 <__port_irq_epilogue.part.0>
 8002a80:	200009f0 	.word	0x200009f0
 8002a84:	40026400 	.word	0x40026400
 8002a88:	20000cf8 	.word	0x20000cf8
 8002a8c:	e000ed00 	.word	0xe000ed00
 8002a90:	08004cd0 	.word	0x08004cd0
 8002a94:	08004cd8 	.word	0x08004cd8
	...

08002aa0 <Vector12C>:
/**
 * @brief   DMA2 stream 3 shared interrupt handler.
 *
 * @isr
 */
OSAL_IRQ_HANDLER(STM32_DMA2_CH3_HANDLER) {
 8002aa0:	b510      	push	{r4, lr}
 8002aa2:	2330      	movs	r3, #48	; 0x30
 8002aa4:	f383 8811 	msr	BASEPRI, r3
  if (unlikely((oip->dbg.isr_cnt < (cnt_t)0) ||
 8002aa8:	4c1d      	ldr	r4, [pc, #116]	; (8002b20 <Vector12C+0x80>)
 8002aaa:	f8d4 3088 	ldr.w	r3, [r4, #136]	; 0x88
 8002aae:	2b00      	cmp	r3, #0
 8002ab0:	db2c      	blt.n	8002b0c <Vector12C+0x6c>
 8002ab2:	f8d4 208c 	ldr.w	r2, [r4, #140]	; 0x8c
 8002ab6:	bb4a      	cbnz	r2, 8002b0c <Vector12C+0x6c>
  oip->dbg.isr_cnt++;
 8002ab8:	3301      	adds	r3, #1
 8002aba:	f8c4 3088 	str.w	r3, [r4, #136]	; 0x88
 8002abe:	f382 8811 	msr	BASEPRI, r2
  uint32_t flags;

  OSAL_IRQ_PROLOGUE();

  flags = (DMA2->LISR >> 22U) & STM32_DMA_ISR_MASK;
 8002ac2:	4b18      	ldr	r3, [pc, #96]	; (8002b24 <Vector12C+0x84>)
  DMA2->LIFCR = flags << 22U;
  if (dma.streams[11].func)
 8002ac4:	4a18      	ldr	r2, [pc, #96]	; (8002b28 <Vector12C+0x88>)
  flags = (DMA2->LISR >> 22U) & STM32_DMA_ISR_MASK;
 8002ac6:	6819      	ldr	r1, [r3, #0]
 8002ac8:	0d89      	lsrs	r1, r1, #22
 8002aca:	f001 013d 	and.w	r1, r1, #61	; 0x3d
  DMA2->LIFCR = flags << 22U;
 8002ace:	0588      	lsls	r0, r1, #22
 8002ad0:	6098      	str	r0, [r3, #8]
  if (dma.streams[11].func)
 8002ad2:	6dd3      	ldr	r3, [r2, #92]	; 0x5c
 8002ad4:	b10b      	cbz	r3, 8002ada <Vector12C+0x3a>
    dma.streams[11].func(dma.streams[11].param, flags);
 8002ad6:	6e10      	ldr	r0, [r2, #96]	; 0x60
 8002ad8:	4798      	blx	r3
 8002ada:	2230      	movs	r2, #48	; 0x30
 8002adc:	f382 8811 	msr	BASEPRI, r2
  if (unlikely((oip->dbg.isr_cnt <= (cnt_t)0) ||
 8002ae0:	f8d4 3088 	ldr.w	r3, [r4, #136]	; 0x88
 8002ae4:	2b00      	cmp	r3, #0
 8002ae6:	dd14      	ble.n	8002b12 <Vector12C+0x72>
 8002ae8:	f8d4 108c 	ldr.w	r1, [r4, #140]	; 0x8c
 8002aec:	b989      	cbnz	r1, 8002b12 <Vector12C+0x72>
  oip->dbg.isr_cnt--;
 8002aee:	3b01      	subs	r3, #1
 8002af0:	f8c4 3088 	str.w	r3, [r4, #136]	; 0x88
 8002af4:	f381 8811 	msr	BASEPRI, r1
 8002af8:	f382 8811 	msr	BASEPRI, r2
 8002afc:	4b0b      	ldr	r3, [pc, #44]	; (8002b2c <Vector12C+0x8c>)
 8002afe:	685b      	ldr	r3, [r3, #4]
 8002b00:	f413 6300 	ands.w	r3, r3, #2048	; 0x800
 8002b04:	d108      	bne.n	8002b18 <Vector12C+0x78>
 8002b06:	f383 8811 	msr	BASEPRI, r3

  OSAL_IRQ_EPILOGUE();
}
 8002b0a:	bd10      	pop	{r4, pc}
    chSysHalt("SV#8");
 8002b0c:	4808      	ldr	r0, [pc, #32]	; (8002b30 <Vector12C+0x90>)
 8002b0e:	f7fe f85f 	bl	8000bd0 <chSysHalt>
    chSysHalt("SV#9");
 8002b12:	4808      	ldr	r0, [pc, #32]	; (8002b34 <Vector12C+0x94>)
 8002b14:	f7fe f85c 	bl	8000bd0 <chSysHalt>
 8002b18:	e8bd 4010 	ldmia.w	sp!, {r4, lr}
 8002b1c:	f7ff b840 	b.w	8001ba0 <__port_irq_epilogue.part.0>
 8002b20:	200009f0 	.word	0x200009f0
 8002b24:	40026400 	.word	0x40026400
 8002b28:	20000cf8 	.word	0x20000cf8
 8002b2c:	e000ed00 	.word	0xe000ed00
 8002b30:	08004cd0 	.word	0x08004cd0
 8002b34:	08004cd8 	.word	0x08004cd8
	...

08002b40 <Vector130>:
/**
 * @brief   DMA2 stream 4 shared interrupt handler.
 *
 * @isr
 */
OSAL_IRQ_HANDLER(STM32_DMA2_CH4_HANDLER) {
 8002b40:	b510      	push	{r4, lr}
 8002b42:	2330      	movs	r3, #48	; 0x30
 8002b44:	f383 8811 	msr	BASEPRI, r3
  if (unlikely((oip->dbg.isr_cnt < (cnt_t)0) ||
 8002b48:	4c1c      	ldr	r4, [pc, #112]	; (8002bbc <Vector130+0x7c>)
 8002b4a:	f8d4 3088 	ldr.w	r3, [r4, #136]	; 0x88
 8002b4e:	2b00      	cmp	r3, #0
 8002b50:	db2a      	blt.n	8002ba8 <Vector130+0x68>
 8002b52:	f8d4 208c 	ldr.w	r2, [r4, #140]	; 0x8c
 8002b56:	bb3a      	cbnz	r2, 8002ba8 <Vector130+0x68>
  oip->dbg.isr_cnt++;
 8002b58:	3301      	adds	r3, #1
 8002b5a:	f8c4 3088 	str.w	r3, [r4, #136]	; 0x88
 8002b5e:	f382 8811 	msr	BASEPRI, r2
  uint32_t flags;

  OSAL_IRQ_PROLOGUE();

  flags = (DMA2->HISR >> 0U) & STM32_DMA_ISR_MASK;
 8002b62:	4b17      	ldr	r3, [pc, #92]	; (8002bc0 <Vector130+0x80>)
  DMA2->HIFCR = flags << 0U;
  if (dma.streams[12].func)
 8002b64:	4817      	ldr	r0, [pc, #92]	; (8002bc4 <Vector130+0x84>)
  flags = (DMA2->HISR >> 0U) & STM32_DMA_ISR_MASK;
 8002b66:	6859      	ldr	r1, [r3, #4]
  if (dma.streams[12].func)
 8002b68:	6e42      	ldr	r2, [r0, #100]	; 0x64
  flags = (DMA2->HISR >> 0U) & STM32_DMA_ISR_MASK;
 8002b6a:	f001 013d 	and.w	r1, r1, #61	; 0x3d
  DMA2->HIFCR = flags << 0U;
 8002b6e:	60d9      	str	r1, [r3, #12]
  if (dma.streams[12].func)
 8002b70:	b10a      	cbz	r2, 8002b76 <Vector130+0x36>
    dma.streams[12].func(dma.streams[12].param, flags);
 8002b72:	6e80      	ldr	r0, [r0, #104]	; 0x68
 8002b74:	4790      	blx	r2
 8002b76:	2230      	movs	r2, #48	; 0x30
 8002b78:	f382 8811 	msr	BASEPRI, r2
  if (unlikely((oip->dbg.isr_cnt <= (cnt_t)0) ||
 8002b7c:	f8d4 3088 	ldr.w	r3, [r4, #136]	; 0x88
 8002b80:	2b00      	cmp	r3, #0
 8002b82:	dd14      	ble.n	8002bae <Vector130+0x6e>
 8002b84:	f8d4 108c 	ldr.w	r1, [r4, #140]	; 0x8c
 8002b88:	b989      	cbnz	r1, 8002bae <Vector130+0x6e>
  oip->dbg.isr_cnt--;
 8002b8a:	3b01      	subs	r3, #1
 8002b8c:	f8c4 3088 	str.w	r3, [r4, #136]	; 0x88
 8002b90:	f381 8811 	msr	BASEPRI, r1
 8002b94:	f382 8811 	msr	BASEPRI, r2
 8002b98:	4b0b      	ldr	r3, [pc, #44]	; (8002bc8 <Vector130+0x88>)
 8002b9a:	685b      	ldr	r3, [r3, #4]
 8002b9c:	f413 6300 	ands.w	r3, r3, #2048	; 0x800
 8002ba0:	d108      	bne.n	8002bb4 <Vector130+0x74>
 8002ba2:	f383 8811 	msr	BASEPRI, r3

  OSAL_IRQ_EPILOGUE();
}
 8002ba6:	bd10      	pop	{r4, pc}
    chSysHalt("SV#8");
 8002ba8:	4808      	ldr	r0, [pc, #32]	; (8002bcc <Vector130+0x8c>)
 8002baa:	f7fe f811 	bl	8000bd0 <chSysHalt>
    chSysHalt("SV#9");
 8002bae:	4808      	ldr	r0, [pc, #32]	; (8002bd0 <Vector130+0x90>)
 8002bb0:	f7fe f80e 	bl	8000bd0 <chSysHalt>
 8002bb4:	e8bd 4010 	ldmia.w	sp!, {r4, lr}
 8002bb8:	f7fe bff2 	b.w	8001ba0 <__port_irq_epilogue.part.0>
 8002bbc:	200009f0 	.word	0x200009f0
 8002bc0:	40026400 	.word	0x40026400
 8002bc4:	20000cf8 	.word	0x20000cf8
 8002bc8:	e000ed00 	.word	0xe000ed00
 8002bcc:	08004cd0 	.word	0x08004cd0
 8002bd0:	08004cd8 	.word	0x08004cd8
	...

08002be0 <Vector150>:
/**
 * @brief   DMA2 stream 5 shared interrupt handler.
 *
 * @isr
 */
OSAL_IRQ_HANDLER(STM32_DMA2_CH5_HANDLER) {
 8002be0:	b510      	push	{r4, lr}
 8002be2:	2330      	movs	r3, #48	; 0x30
 8002be4:	f383 8811 	msr	BASEPRI, r3
  if (unlikely((oip->dbg.isr_cnt < (cnt_t)0) ||
 8002be8:	4c1d      	ldr	r4, [pc, #116]	; (8002c60 <Vector150+0x80>)
 8002bea:	f8d4 3088 	ldr.w	r3, [r4, #136]	; 0x88
 8002bee:	2b00      	cmp	r3, #0
 8002bf0:	db2c      	blt.n	8002c4c <Vector150+0x6c>
 8002bf2:	f8d4 208c 	ldr.w	r2, [r4, #140]	; 0x8c
 8002bf6:	bb4a      	cbnz	r2, 8002c4c <Vector150+0x6c>
  oip->dbg.isr_cnt++;
 8002bf8:	3301      	adds	r3, #1
 8002bfa:	f8c4 3088 	str.w	r3, [r4, #136]	; 0x88
 8002bfe:	f382 8811 	msr	BASEPRI, r2
  uint32_t flags;

  OSAL_IRQ_PROLOGUE();

  flags = (DMA2->HISR >> 6U) & STM32_DMA_ISR_MASK;
 8002c02:	4b18      	ldr	r3, [pc, #96]	; (8002c64 <Vector150+0x84>)
  DMA2->HIFCR = flags << 6U;
  if (dma.streams[13].func)
 8002c04:	4a18      	ldr	r2, [pc, #96]	; (8002c68 <Vector150+0x88>)
  flags = (DMA2->HISR >> 6U) & STM32_DMA_ISR_MASK;
 8002c06:	6859      	ldr	r1, [r3, #4]
 8002c08:	0989      	lsrs	r1, r1, #6
 8002c0a:	f001 013d 	and.w	r1, r1, #61	; 0x3d
  DMA2->HIFCR = flags << 6U;
 8002c0e:	0188      	lsls	r0, r1, #6
 8002c10:	60d8      	str	r0, [r3, #12]
  if (dma.streams[13].func)
 8002c12:	6ed3      	ldr	r3, [r2, #108]	; 0x6c
 8002c14:	b10b      	cbz	r3, 8002c1a <Vector150+0x3a>
    dma.streams[13].func(dma.streams[13].param, flags);
 8002c16:	6f10      	ldr	r0, [r2, #112]	; 0x70
 8002c18:	4798      	blx	r3
 8002c1a:	2230      	movs	r2, #48	; 0x30
 8002c1c:	f382 8811 	msr	BASEPRI, r2
  if (unlikely((oip->dbg.isr_cnt <= (cnt_t)0) ||
 8002c20:	f8d4 3088 	ldr.w	r3, [r4, #136]	; 0x88
 8002c24:	2b00      	cmp	r3, #0
 8002c26:	dd14      	ble.n	8002c52 <Vector150+0x72>
 8002c28:	f8d4 108c 	ldr.w	r1, [r4, #140]	; 0x8c
 8002c2c:	b989      	cbnz	r1, 8002c52 <Vector150+0x72>
  oip->dbg.isr_cnt--;
 8002c2e:	3b01      	subs	r3, #1
 8002c30:	f8c4 3088 	str.w	r3, [r4, #136]	; 0x88
 8002c34:	f381 8811 	msr	BASEPRI, r1
 8002c38:	f382 8811 	msr	BASEPRI, r2
 8002c3c:	4b0b      	ldr	r3, [pc, #44]	; (8002c6c <Vector150+0x8c>)
 8002c3e:	685b      	ldr	r3, [r3, #4]
 8002c40:	f413 6300 	ands.w	r3, r3, #2048	; 0x800
 8002c44:	d108      	bne.n	8002c58 <Vector150+0x78>
 8002c46:	f383 8811 	msr	BASEPRI, r3

  OSAL_IRQ_EPILOGUE();
}
 8002c4a:	bd10      	pop	{r4, pc}
    chSysHalt("SV#8");
 8002c4c:	4808      	ldr	r0, [pc, #32]	; (8002c70 <Vector150+0x90>)
 8002c4e:	f7fd ffbf 	bl	8000bd0 <chSysHalt>
    chSysHalt("SV#9");
 8002c52:	4808      	ldr	r0, [pc, #32]	; (8002c74 <Vector150+0x94>)
 8002c54:	f7fd ffbc 	bl	8000bd0 <chSysHalt>
 8002c58:	e8bd 4010 	ldmia.w	sp!, {r4, lr}
 8002c5c:	f7fe bfa0 	b.w	8001ba0 <__port_irq_epilogue.part.0>
 8002c60:	200009f0 	.word	0x200009f0
 8002c64:	40026400 	.word	0x40026400
 8002c68:	20000cf8 	.word	0x20000cf8
 8002c6c:	e000ed00 	.word	0xe000ed00
 8002c70:	08004cd0 	.word	0x08004cd0
 8002c74:	08004cd8 	.word	0x08004cd8
	...

08002c80 <Vector154>:
/**
 * @brief   DMA2 stream 6 shared interrupt handler.
 *
 * @isr
 */
OSAL_IRQ_HANDLER(STM32_DMA2_CH6_HANDLER) {
 8002c80:	b510      	push	{r4, lr}
 8002c82:	2330      	movs	r3, #48	; 0x30
 8002c84:	f383 8811 	msr	BASEPRI, r3
  if (unlikely((oip->dbg.isr_cnt < (cnt_t)0) ||
 8002c88:	4c1d      	ldr	r4, [pc, #116]	; (8002d00 <Vector154+0x80>)
 8002c8a:	f8d4 3088 	ldr.w	r3, [r4, #136]	; 0x88
 8002c8e:	2b00      	cmp	r3, #0
 8002c90:	db2c      	blt.n	8002cec <Vector154+0x6c>
 8002c92:	f8d4 208c 	ldr.w	r2, [r4, #140]	; 0x8c
 8002c96:	bb4a      	cbnz	r2, 8002cec <Vector154+0x6c>
  oip->dbg.isr_cnt++;
 8002c98:	3301      	adds	r3, #1
 8002c9a:	f8c4 3088 	str.w	r3, [r4, #136]	; 0x88
 8002c9e:	f382 8811 	msr	BASEPRI, r2
  uint32_t flags;

  OSAL_IRQ_PROLOGUE();

  flags = (DMA2->HISR >> 16U) & STM32_DMA_ISR_MASK;
 8002ca2:	4b18      	ldr	r3, [pc, #96]	; (8002d04 <Vector154+0x84>)
  DMA2->HIFCR = flags << 16U;
  if (dma.streams[14].func)
 8002ca4:	4a18      	ldr	r2, [pc, #96]	; (8002d08 <Vector154+0x88>)
  flags = (DMA2->HISR >> 16U) & STM32_DMA_ISR_MASK;
 8002ca6:	6859      	ldr	r1, [r3, #4]
 8002ca8:	0c09      	lsrs	r1, r1, #16
 8002caa:	f001 013d 	and.w	r1, r1, #61	; 0x3d
  DMA2->HIFCR = flags << 16U;
 8002cae:	0408      	lsls	r0, r1, #16
 8002cb0:	60d8      	str	r0, [r3, #12]
  if (dma.streams[14].func)
 8002cb2:	6f53      	ldr	r3, [r2, #116]	; 0x74
 8002cb4:	b10b      	cbz	r3, 8002cba <Vector154+0x3a>
    dma.streams[14].func(dma.streams[14].param, flags);
 8002cb6:	6f90      	ldr	r0, [r2, #120]	; 0x78
 8002cb8:	4798      	blx	r3
 8002cba:	2230      	movs	r2, #48	; 0x30
 8002cbc:	f382 8811 	msr	BASEPRI, r2
  if (unlikely((oip->dbg.isr_cnt <= (cnt_t)0) ||
 8002cc0:	f8d4 3088 	ldr.w	r3, [r4, #136]	; 0x88
 8002cc4:	2b00      	cmp	r3, #0
 8002cc6:	dd14      	ble.n	8002cf2 <Vector154+0x72>
 8002cc8:	f8d4 108c 	ldr.w	r1, [r4, #140]	; 0x8c
 8002ccc:	b989      	cbnz	r1, 8002cf2 <Vector154+0x72>
  oip->dbg.isr_cnt--;
 8002cce:	3b01      	subs	r3, #1
 8002cd0:	f8c4 3088 	str.w	r3, [r4, #136]	; 0x88
 8002cd4:	f381 8811 	msr	BASEPRI, r1
 8002cd8:	f382 8811 	msr	BASEPRI, r2
 8002cdc:	4b0b      	ldr	r3, [pc, #44]	; (8002d0c <Vector154+0x8c>)
 8002cde:	685b      	ldr	r3, [r3, #4]
 8002ce0:	f413 6300 	ands.w	r3, r3, #2048	; 0x800
 8002ce4:	d108      	bne.n	8002cf8 <Vector154+0x78>
 8002ce6:	f383 8811 	msr	BASEPRI, r3

  OSAL_IRQ_EPILOGUE();
}
 8002cea:	bd10      	pop	{r4, pc}
    chSysHalt("SV#8");
 8002cec:	4808      	ldr	r0, [pc, #32]	; (8002d10 <Vector154+0x90>)
 8002cee:	f7fd ff6f 	bl	8000bd0 <chSysHalt>
    chSysHalt("SV#9");
 8002cf2:	4808      	ldr	r0, [pc, #32]	; (8002d14 <Vector154+0x94>)
 8002cf4:	f7fd ff6c 	bl	8000bd0 <chSysHalt>
 8002cf8:	e8bd 4010 	ldmia.w	sp!, {r4, lr}
 8002cfc:	f7fe bf50 	b.w	8001ba0 <__port_irq_epilogue.part.0>
 8002d00:	200009f0 	.word	0x200009f0
 8002d04:	40026400 	.word	0x40026400
 8002d08:	20000cf8 	.word	0x20000cf8
 8002d0c:	e000ed00 	.word	0xe000ed00
 8002d10:	08004cd0 	.word	0x08004cd0
 8002d14:	08004cd8 	.word	0x08004cd8
	...

08002d20 <Vector158>:
/**
 * @brief   DMA2 stream 7 shared interrupt handler.
 *
 * @isr
 */
OSAL_IRQ_HANDLER(STM32_DMA2_CH7_HANDLER) {
 8002d20:	b510      	push	{r4, lr}
 8002d22:	2330      	movs	r3, #48	; 0x30
 8002d24:	f383 8811 	msr	BASEPRI, r3
  if (unlikely((oip->dbg.isr_cnt < (cnt_t)0) ||
 8002d28:	4c1e      	ldr	r4, [pc, #120]	; (8002da4 <Vector158+0x84>)
 8002d2a:	f8d4 3088 	ldr.w	r3, [r4, #136]	; 0x88
 8002d2e:	2b00      	cmp	r3, #0
 8002d30:	db2d      	blt.n	8002d8e <Vector158+0x6e>
 8002d32:	f8d4 208c 	ldr.w	r2, [r4, #140]	; 0x8c
 8002d36:	bb52      	cbnz	r2, 8002d8e <Vector158+0x6e>
  oip->dbg.isr_cnt++;
 8002d38:	3301      	adds	r3, #1
 8002d3a:	f8c4 3088 	str.w	r3, [r4, #136]	; 0x88
 8002d3e:	f382 8811 	msr	BASEPRI, r2
  uint32_t flags;

  OSAL_IRQ_PROLOGUE();

  flags = (DMA2->HISR >> 22U) & STM32_DMA_ISR_MASK;
 8002d42:	4b19      	ldr	r3, [pc, #100]	; (8002da8 <Vector158+0x88>)
  DMA2->HIFCR = flags << 22U;
  if (dma.streams[15].func)
 8002d44:	4a19      	ldr	r2, [pc, #100]	; (8002dac <Vector158+0x8c>)
  flags = (DMA2->HISR >> 22U) & STM32_DMA_ISR_MASK;
 8002d46:	6859      	ldr	r1, [r3, #4]
 8002d48:	0d89      	lsrs	r1, r1, #22
 8002d4a:	f001 013d 	and.w	r1, r1, #61	; 0x3d
  DMA2->HIFCR = flags << 22U;
 8002d4e:	0588      	lsls	r0, r1, #22
 8002d50:	60d8      	str	r0, [r3, #12]
  if (dma.streams[15].func)
 8002d52:	6fd3      	ldr	r3, [r2, #124]	; 0x7c
 8002d54:	b113      	cbz	r3, 8002d5c <Vector158+0x3c>
    dma.streams[15].func(dma.streams[15].param, flags);
 8002d56:	f8d2 0080 	ldr.w	r0, [r2, #128]	; 0x80
 8002d5a:	4798      	blx	r3
 8002d5c:	2230      	movs	r2, #48	; 0x30
 8002d5e:	f382 8811 	msr	BASEPRI, r2
  if (unlikely((oip->dbg.isr_cnt <= (cnt_t)0) ||
 8002d62:	f8d4 3088 	ldr.w	r3, [r4, #136]	; 0x88
 8002d66:	2b00      	cmp	r3, #0
 8002d68:	dd14      	ble.n	8002d94 <Vector158+0x74>
 8002d6a:	f8d4 108c 	ldr.w	r1, [r4, #140]	; 0x8c
 8002d6e:	b989      	cbnz	r1, 8002d94 <Vector158+0x74>
  oip->dbg.isr_cnt--;
 8002d70:	3b01      	subs	r3, #1
 8002d72:	f8c4 3088 	str.w	r3, [r4, #136]	; 0x88
 8002d76:	f381 8811 	msr	BASEPRI, r1
 8002d7a:	f382 8811 	msr	BASEPRI, r2
 8002d7e:	4b0c      	ldr	r3, [pc, #48]	; (8002db0 <Vector158+0x90>)
 8002d80:	685b      	ldr	r3, [r3, #4]
 8002d82:	f413 6300 	ands.w	r3, r3, #2048	; 0x800
 8002d86:	d108      	bne.n	8002d9a <Vector158+0x7a>
 8002d88:	f383 8811 	msr	BASEPRI, r3

  OSAL_IRQ_EPILOGUE();
}
 8002d8c:	bd10      	pop	{r4, pc}
    chSysHalt("SV#8");
 8002d8e:	4809      	ldr	r0, [pc, #36]	; (8002db4 <Vector158+0x94>)
 8002d90:	f7fd ff1e 	bl	8000bd0 <chSysHalt>
    chSysHalt("SV#9");
 8002d94:	4808      	ldr	r0, [pc, #32]	; (8002db8 <Vector158+0x98>)
 8002d96:	f7fd ff1b 	bl	8000bd0 <chSysHalt>
 8002d9a:	e8bd 4010 	ldmia.w	sp!, {r4, lr}
 8002d9e:	f7fe beff 	b.w	8001ba0 <__port_irq_epilogue.part.0>
 8002da2:	bf00      	nop
 8002da4:	200009f0 	.word	0x200009f0
 8002da8:	40026400 	.word	0x40026400
 8002dac:	20000cf8 	.word	0x20000cf8
 8002db0:	e000ed00 	.word	0xe000ed00
 8002db4:	08004cd0 	.word	0x08004cd0
 8002db8:	08004cd8 	.word	0x08004cd8
 8002dbc:	00000000 	.word	0x00000000

08002dc0 <VectorC4>:
/**
 * @brief   I2C2 event interrupt handler.
 *
 * @notapi
 */
OSAL_IRQ_HANDLER(STM32_I2C2_EVENT_HANDLER) {
 8002dc0:	b570      	push	{r4, r5, r6, lr}
 8002dc2:	2130      	movs	r1, #48	; 0x30
 8002dc4:	f381 8811 	msr	BASEPRI, r1
  if (unlikely((oip->dbg.isr_cnt < (cnt_t)0) ||
 8002dc8:	4c7d      	ldr	r4, [pc, #500]	; (8002fc0 <VectorC4+0x200>)
 8002dca:	f8d4 3088 	ldr.w	r3, [r4, #136]	; 0x88
 8002dce:	2b00      	cmp	r3, #0
 8002dd0:	f2c0 80e5 	blt.w	8002f9e <VectorC4+0x1de>
 8002dd4:	f8d4 208c 	ldr.w	r2, [r4, #140]	; 0x8c
 8002dd8:	2a00      	cmp	r2, #0
 8002dda:	f040 80e0 	bne.w	8002f9e <VectorC4+0x1de>
  oip->dbg.isr_cnt++;
 8002dde:	3301      	adds	r3, #1
 8002de0:	f8c4 3088 	str.w	r3, [r4, #136]	; 0x88
 8002de4:	f382 8811 	msr	BASEPRI, r2
  I2C_TypeDef *dp = i2cp->i2c;
 8002de8:	4a76      	ldr	r2, [pc, #472]	; (8002fc4 <VectorC4+0x204>)
  switch (I2C_EV_MASK & (event | (regSR2 << 16))) {
 8002dea:	4877      	ldr	r0, [pc, #476]	; (8002fc8 <VectorC4+0x208>)
  I2C_TypeDef *dp = i2cp->i2c;
 8002dec:	6b55      	ldr	r5, [r2, #52]	; 0x34
  uint32_t regSR2 = dp->SR2;
 8002dee:	69ab      	ldr	r3, [r5, #24]
  uint32_t event = dp->SR1;
 8002df0:	696e      	ldr	r6, [r5, #20]
  switch (I2C_EV_MASK & (event | (regSR2 << 16))) {
 8002df2:	ea46 4303 	orr.w	r3, r6, r3, lsl #16
 8002df6:	f003 13ff 	and.w	r3, r3, #16711935	; 0xff00ff
 8002dfa:	4283      	cmp	r3, r0
 8002dfc:	d836      	bhi.n	8002e6c <VectorC4+0xac>
 8002dfe:	f5b3 3f40 	cmp.w	r3, #196608	; 0x30000
 8002e02:	d90f      	bls.n	8002e24 <VectorC4+0x64>
 8002e04:	f5a3 3340 	sub.w	r3, r3, #196608	; 0x30000
 8002e08:	3b01      	subs	r3, #1
 8002e0a:	2b10      	cmp	r3, #16
 8002e0c:	d80d      	bhi.n	8002e2a <VectorC4+0x6a>
 8002e0e:	e8df f003 	tbb	[pc, r3]
 8002e12:	5942      	.short	0x5942
 8002e14:	0c0c0c0c 	.word	0x0c0c0c0c
 8002e18:	0c0c6f0c 	.word	0x0c0c6f0c
 8002e1c:	0c0c0c0c 	.word	0x0c0c0c0c
 8002e20:	0c0c      	.short	0x0c0c
 8002e22:	74          	.byte	0x74
 8002e23:	00          	.byte	0x00
 8002e24:	f1b3 1f01 	cmp.w	r3, #65537	; 0x10001
 8002e28:	d035      	beq.n	8002e96 <VectorC4+0xd6>
  if (event & (I2C_SR1_ADDR | I2C_SR1_ADD10))
 8002e2a:	f016 0f0a 	tst.w	r6, #10
    (void)dp->SR2;
 8002e2e:	bf18      	it	ne
 8002e30:	69ab      	ldrne	r3, [r5, #24]
 8002e32:	2230      	movs	r2, #48	; 0x30
 8002e34:	f382 8811 	msr	BASEPRI, r2
  if (unlikely((oip->dbg.isr_cnt <= (cnt_t)0) ||
 8002e38:	f8d4 3088 	ldr.w	r3, [r4, #136]	; 0x88
 8002e3c:	2b00      	cmp	r3, #0
 8002e3e:	f340 80b1 	ble.w	8002fa4 <VectorC4+0x1e4>
 8002e42:	f8d4 108c 	ldr.w	r1, [r4, #140]	; 0x8c
 8002e46:	2900      	cmp	r1, #0
 8002e48:	f040 80ac 	bne.w	8002fa4 <VectorC4+0x1e4>
  oip->dbg.isr_cnt--;
 8002e4c:	3b01      	subs	r3, #1
 8002e4e:	f8c4 3088 	str.w	r3, [r4, #136]	; 0x88
 8002e52:	f381 8811 	msr	BASEPRI, r1
 8002e56:	f382 8811 	msr	BASEPRI, r2
 8002e5a:	4b5c      	ldr	r3, [pc, #368]	; (8002fcc <VectorC4+0x20c>)
 8002e5c:	685b      	ldr	r3, [r3, #4]
 8002e5e:	f413 6300 	ands.w	r3, r3, #2048	; 0x800
 8002e62:	f040 80a2 	bne.w	8002faa <VectorC4+0x1ea>
 8002e66:	f383 8811 	msr	BASEPRI, r3
  OSAL_IRQ_PROLOGUE();

  i2c_lld_serve_event_interrupt(&I2CD2);

  OSAL_IRQ_EPILOGUE();
}
 8002e6a:	bd70      	pop	{r4, r5, r6, pc}
  switch (I2C_EV_MASK & (event | (regSR2 << 16))) {
 8002e6c:	4858      	ldr	r0, [pc, #352]	; (8002fd0 <VectorC4+0x210>)
 8002e6e:	4283      	cmp	r3, r0
 8002e70:	d01d      	beq.n	8002eae <VectorC4+0xee>
 8002e72:	3002      	adds	r0, #2
 8002e74:	4283      	cmp	r3, r0
 8002e76:	d1d8      	bne.n	8002e2a <VectorC4+0x6a>
    (void)dp->DR; /* Clear BTF.*/
 8002e78:	692b      	ldr	r3, [r5, #16]
    if (dmaStreamGetTransactionSize(i2cp->dmarx) > 0) {
 8002e7a:	6ad3      	ldr	r3, [r2, #44]	; 0x2c
 8002e7c:	681b      	ldr	r3, [r3, #0]
 8002e7e:	685b      	ldr	r3, [r3, #4]
 8002e80:	2b00      	cmp	r3, #0
 8002e82:	d064      	beq.n	8002f4e <VectorC4+0x18e>
      i2cp->addr |= 0x01;
 8002e84:	8c11      	ldrh	r1, [r2, #32]
      dp->CR1 |= I2C_CR1_START | I2C_CR1_ACK;
 8002e86:	682b      	ldr	r3, [r5, #0]
      i2cp->addr |= 0x01;
 8002e88:	f041 0101 	orr.w	r1, r1, #1
      dp->CR1 |= I2C_CR1_START | I2C_CR1_ACK;
 8002e8c:	f443 63a0 	orr.w	r3, r3, #1280	; 0x500
      i2cp->addr |= 0x01;
 8002e90:	8411      	strh	r1, [r2, #32]
      dp->CR1 |= I2C_CR1_START | I2C_CR1_ACK;
 8002e92:	602b      	str	r3, [r5, #0]
      return;
 8002e94:	e7cd      	b.n	8002e32 <VectorC4+0x72>
    if ((i2cp->addr >> 8) > 0) {
 8002e96:	8c13      	ldrh	r3, [r2, #32]
 8002e98:	0a1a      	lsrs	r2, r3, #8
 8002e9a:	d02c      	beq.n	8002ef6 <VectorC4+0x136>
      dp->DR = 0xF0 | (0x6 & (i2cp->addr >> 8)) | (0x1 & i2cp->addr);
 8002e9c:	f002 0206 	and.w	r2, r2, #6
 8002ea0:	f003 0301 	and.w	r3, r3, #1
 8002ea4:	4313      	orrs	r3, r2
 8002ea6:	f043 03f0 	orr.w	r3, r3, #240	; 0xf0
 8002eaa:	612b      	str	r3, [r5, #16]
 8002eac:	e7bd      	b.n	8002e2a <VectorC4+0x6a>
    dp->CR2 &= ~I2C_CR2_ITEVTEN;
 8002eae:	686b      	ldr	r3, [r5, #4]
    dmaStreamEnable(i2cp->dmatx);
 8002eb0:	6b12      	ldr	r2, [r2, #48]	; 0x30
    dp->CR2 &= ~I2C_CR2_ITEVTEN;
 8002eb2:	f423 7300 	bic.w	r3, r3, #512	; 0x200
    dmaStreamEnable(i2cp->dmatx);
 8002eb6:	6812      	ldr	r2, [r2, #0]
    dp->CR2 &= ~I2C_CR2_ITEVTEN;
 8002eb8:	606b      	str	r3, [r5, #4]
    dmaStreamEnable(i2cp->dmatx);
 8002eba:	6813      	ldr	r3, [r2, #0]
 8002ebc:	f043 0301 	orr.w	r3, r3, #1
 8002ec0:	6013      	str	r3, [r2, #0]
    break;
 8002ec2:	e7b2      	b.n	8002e2a <VectorC4+0x6a>
    dp->CR2 &= ~I2C_CR2_ITEVTEN;
 8002ec4:	686b      	ldr	r3, [r5, #4]
    dmaStreamEnable(i2cp->dmarx);
 8002ec6:	6ad1      	ldr	r1, [r2, #44]	; 0x2c
    dp->CR2 &= ~I2C_CR2_ITEVTEN;
 8002ec8:	f423 7200 	bic.w	r2, r3, #512	; 0x200
    dmaStreamEnable(i2cp->dmarx);
 8002ecc:	680b      	ldr	r3, [r1, #0]
    dp->CR2 &= ~I2C_CR2_ITEVTEN;
 8002ece:	606a      	str	r2, [r5, #4]
    dmaStreamEnable(i2cp->dmarx);
 8002ed0:	681a      	ldr	r2, [r3, #0]
 8002ed2:	f042 0201 	orr.w	r2, r2, #1
 8002ed6:	601a      	str	r2, [r3, #0]
    dp->CR2 |= I2C_CR2_LAST;                 /* Needed in receiver mode. */
 8002ed8:	686a      	ldr	r2, [r5, #4]
 8002eda:	f442 5280 	orr.w	r2, r2, #4096	; 0x1000
 8002ede:	606a      	str	r2, [r5, #4]
    if (dmaStreamGetTransactionSize(i2cp->dmarx) < 2)
 8002ee0:	685b      	ldr	r3, [r3, #4]
 8002ee2:	2b01      	cmp	r3, #1
 8002ee4:	d8a1      	bhi.n	8002e2a <VectorC4+0x6a>
      dp->CR1 &= ~I2C_CR1_ACK;
 8002ee6:	682b      	ldr	r3, [r5, #0]
 8002ee8:	f423 6380 	bic.w	r3, r3, #1024	; 0x400
 8002eec:	602b      	str	r3, [r5, #0]
 8002eee:	e79c      	b.n	8002e2a <VectorC4+0x6a>
    dp->DR = (0xFF & (i2cp->addr >> 1));
 8002ef0:	8c13      	ldrh	r3, [r2, #32]
 8002ef2:	f3c3 0347 	ubfx	r3, r3, #1, #8
 8002ef6:	612b      	str	r3, [r5, #16]
    break;
 8002ef8:	e797      	b.n	8002e2a <VectorC4+0x6a>
  dmaStreamDisable(i2cp->dmatx);
 8002efa:	6b10      	ldr	r0, [r2, #48]	; 0x30
  dp->CR1 = I2C_CR1_SWRST;
 8002efc:	f44f 4300 	mov.w	r3, #32768	; 0x8000
 8002f00:	602b      	str	r3, [r5, #0]
  dmaStreamDisable(i2cp->dmatx);
 8002f02:	6801      	ldr	r1, [r0, #0]
  dp->CR1 = 0;
 8002f04:	2300      	movs	r3, #0
 8002f06:	602b      	str	r3, [r5, #0]
  dp->CR2 = 0;
 8002f08:	606b      	str	r3, [r5, #4]
  dp->SR1 = 0;
 8002f0a:	616b      	str	r3, [r5, #20]
  dmaStreamDisable(i2cp->dmatx);
 8002f0c:	680b      	ldr	r3, [r1, #0]
 8002f0e:	f023 031f 	bic.w	r3, r3, #31
 8002f12:	600b      	str	r3, [r1, #0]
 8002f14:	680b      	ldr	r3, [r1, #0]
 8002f16:	07db      	lsls	r3, r3, #31
 8002f18:	d4fc      	bmi.n	8002f14 <VectorC4+0x154>
 8002f1a:	f890 c009 	ldrb.w	ip, [r0, #9]
  dmaStreamDisable(i2cp->dmarx);
 8002f1e:	6ad1      	ldr	r1, [r2, #44]	; 0x2c
  dmaStreamDisable(i2cp->dmatx);
 8002f20:	6842      	ldr	r2, [r0, #4]
 8002f22:	233d      	movs	r3, #61	; 0x3d
 8002f24:	fa03 f30c 	lsl.w	r3, r3, ip
 8002f28:	6013      	str	r3, [r2, #0]
  dmaStreamDisable(i2cp->dmarx);
 8002f2a:	680a      	ldr	r2, [r1, #0]
 8002f2c:	6813      	ldr	r3, [r2, #0]
 8002f2e:	f023 031f 	bic.w	r3, r3, #31
 8002f32:	6013      	str	r3, [r2, #0]
 8002f34:	6813      	ldr	r3, [r2, #0]
 8002f36:	07db      	lsls	r3, r3, #31
 8002f38:	d4fc      	bmi.n	8002f34 <VectorC4+0x174>
 8002f3a:	684a      	ldr	r2, [r1, #4]
 8002f3c:	7a49      	ldrb	r1, [r1, #9]
 8002f3e:	233d      	movs	r3, #61	; 0x3d
 8002f40:	408b      	lsls	r3, r1
 8002f42:	6013      	str	r3, [r2, #0]
    dp->CR2 &= ~I2C_CR2_ITEVTEN;
 8002f44:	686b      	ldr	r3, [r5, #4]
 8002f46:	f423 7300 	bic.w	r3, r3, #512	; 0x200
 8002f4a:	606b      	str	r3, [r5, #4]
    break;
 8002f4c:	e76d      	b.n	8002e2a <VectorC4+0x6a>
    dp->CR2 &= ~I2C_CR2_ITEVTEN;
 8002f4e:	686b      	ldr	r3, [r5, #4]
 8002f50:	f423 7300 	bic.w	r3, r3, #512	; 0x200
 8002f54:	606b      	str	r3, [r5, #4]
    dp->CR1 |= I2C_CR1_STOP;
 8002f56:	682b      	ldr	r3, [r5, #0]
 8002f58:	f443 7300 	orr.w	r3, r3, #512	; 0x200
 8002f5c:	602b      	str	r3, [r5, #0]
 8002f5e:	f381 8811 	msr	BASEPRI, r1
  if (unlikely((oip->dbg.isr_cnt <= (cnt_t)0) ||
 8002f62:	f8d4 3088 	ldr.w	r3, [r4, #136]	; 0x88
 8002f66:	2b00      	cmp	r3, #0
 8002f68:	dd23      	ble.n	8002fb2 <VectorC4+0x1f2>
 8002f6a:	f8d4 308c 	ldr.w	r3, [r4, #140]	; 0x8c
 8002f6e:	bb03      	cbnz	r3, 8002fb2 <VectorC4+0x1f2>
  if (*trp != NULL) {
 8002f70:	69d0      	ldr	r0, [r2, #28]
  oip->dbg.lock_cnt = (cnt_t)1;
 8002f72:	2101      	movs	r1, #1
 8002f74:	f8c4 108c 	str.w	r1, [r4, #140]	; 0x8c
 8002f78:	b158      	cbz	r0, 8002f92 <VectorC4+0x1d2>
    *trp = NULL;
 8002f7a:	61d3      	str	r3, [r2, #28]
    tp->u.rdymsg = msg;
 8002f7c:	6283      	str	r3, [r0, #40]	; 0x28
    (void) chSchReadyI(tp);
 8002f7e:	f7fe f8c7 	bl	8001110 <chSchReadyI.isra.0>
  if (unlikely((oip->dbg.isr_cnt <= (cnt_t)0) ||
 8002f82:	f8d4 3088 	ldr.w	r3, [r4, #136]	; 0x88
 8002f86:	2b00      	cmp	r3, #0
 8002f88:	dd16      	ble.n	8002fb8 <VectorC4+0x1f8>
 8002f8a:	f8d4 308c 	ldr.w	r3, [r4, #140]	; 0x8c
 8002f8e:	2b00      	cmp	r3, #0
 8002f90:	dd12      	ble.n	8002fb8 <VectorC4+0x1f8>
  oip->dbg.lock_cnt = (cnt_t)0;
 8002f92:	2300      	movs	r3, #0
 8002f94:	f8c4 308c 	str.w	r3, [r4, #140]	; 0x8c
 8002f98:	f383 8811 	msr	BASEPRI, r3
 8002f9c:	e745      	b.n	8002e2a <VectorC4+0x6a>
    chSysHalt("SV#8");
 8002f9e:	480d      	ldr	r0, [pc, #52]	; (8002fd4 <VectorC4+0x214>)
 8002fa0:	f7fd fe16 	bl	8000bd0 <chSysHalt>
    chSysHalt("SV#9");
 8002fa4:	480c      	ldr	r0, [pc, #48]	; (8002fd8 <VectorC4+0x218>)
 8002fa6:	f7fd fe13 	bl	8000bd0 <chSysHalt>
}
 8002faa:	e8bd 4070 	ldmia.w	sp!, {r4, r5, r6, lr}
 8002fae:	f7fe bdf7 	b.w	8001ba0 <__port_irq_epilogue.part.0>
    chSysHalt("SV#6");
 8002fb2:	480a      	ldr	r0, [pc, #40]	; (8002fdc <VectorC4+0x21c>)
 8002fb4:	f7fd fe0c 	bl	8000bd0 <chSysHalt>
    chSysHalt("SV#7");
 8002fb8:	4809      	ldr	r0, [pc, #36]	; (8002fe0 <VectorC4+0x220>)
 8002fba:	f7fd fe09 	bl	8000bd0 <chSysHalt>
 8002fbe:	bf00      	nop
 8002fc0:	200009f0 	.word	0x200009f0
 8002fc4:	2000087c 	.word	0x2000087c
 8002fc8:	00030011 	.word	0x00030011
 8002fcc:	e000ed00 	.word	0xe000ed00
 8002fd0:	00070082 	.word	0x00070082
 8002fd4:	08004cd0 	.word	0x08004cd0
 8002fd8:	08004cd8 	.word	0x08004cd8
 8002fdc:	08004c88 	.word	0x08004c88
 8002fe0:	08004ca0 	.word	0x08004ca0
	...

08002ff0 <VectorC8>:
 * @brief   I2C2 error interrupt handler.
 *
 * @notapi
 */
OSAL_IRQ_HANDLER(STM32_I2C2_ERROR_HANDLER) {
  uint16_t sr = I2CD2.i2c->SR1;
 8002ff0:	495a      	ldr	r1, [pc, #360]	; (800315c <VectorC8+0x16c>)
 8002ff2:	6b4a      	ldr	r2, [r1, #52]	; 0x34
OSAL_IRQ_HANDLER(STM32_I2C2_ERROR_HANDLER) {
 8002ff4:	b5f8      	push	{r3, r4, r5, r6, r7, lr}
  uint16_t sr = I2CD2.i2c->SR1;
 8002ff6:	6955      	ldr	r5, [r2, #20]
 8002ff8:	2330      	movs	r3, #48	; 0x30
 8002ffa:	f383 8811 	msr	BASEPRI, r3
  if (unlikely((oip->dbg.isr_cnt < (cnt_t)0) ||
 8002ffe:	4c58      	ldr	r4, [pc, #352]	; (8003160 <VectorC8+0x170>)
 8003000:	f8d4 3088 	ldr.w	r3, [r4, #136]	; 0x88
 8003004:	2b00      	cmp	r3, #0
 8003006:	f2c0 8098 	blt.w	800313a <VectorC8+0x14a>
 800300a:	f8d4 208c 	ldr.w	r2, [r4, #140]	; 0x8c
 800300e:	2a00      	cmp	r2, #0
 8003010:	f040 8093 	bne.w	800313a <VectorC8+0x14a>
  oip->dbg.isr_cnt++;
 8003014:	3301      	adds	r3, #1
 8003016:	b2a8      	uxth	r0, r5
 8003018:	f8c4 3088 	str.w	r3, [r4, #136]	; 0x88
 800301c:	f382 8811 	msr	BASEPRI, r2
  dmaStreamDisable(i2cp->dmatx);
 8003020:	e9d1 760c 	ldrd	r7, r6, [r1, #48]	; 0x30

  OSAL_IRQ_PROLOGUE();

  I2CD2.i2c->SR1 = ~(sr & I2C_ERROR_MASK);
 8003024:	f405 435f 	and.w	r3, r5, #57088	; 0xdf00
  dmaStreamDisable(i2cp->dmatx);
 8003028:	683a      	ldr	r2, [r7, #0]
  I2CD2.i2c->SR1 = ~(sr & I2C_ERROR_MASK);
 800302a:	43db      	mvns	r3, r3
 800302c:	6173      	str	r3, [r6, #20]
  dmaStreamDisable(i2cp->dmatx);
 800302e:	6813      	ldr	r3, [r2, #0]
 8003030:	f023 031f 	bic.w	r3, r3, #31
 8003034:	6013      	str	r3, [r2, #0]
 8003036:	6813      	ldr	r3, [r2, #0]
 8003038:	07db      	lsls	r3, r3, #31
 800303a:	d4fc      	bmi.n	8003036 <VectorC8+0x46>
 800303c:	f897 c009 	ldrb.w	ip, [r7, #9]
 8003040:	687a      	ldr	r2, [r7, #4]
  dmaStreamDisable(i2cp->dmarx);
 8003042:	6acf      	ldr	r7, [r1, #44]	; 0x2c
  dmaStreamDisable(i2cp->dmatx);
 8003044:	233d      	movs	r3, #61	; 0x3d
 8003046:	fa03 f30c 	lsl.w	r3, r3, ip
 800304a:	6013      	str	r3, [r2, #0]
  dmaStreamDisable(i2cp->dmarx);
 800304c:	683a      	ldr	r2, [r7, #0]
 800304e:	6813      	ldr	r3, [r2, #0]
 8003050:	f023 031f 	bic.w	r3, r3, #31
 8003054:	6013      	str	r3, [r2, #0]
 8003056:	6813      	ldr	r3, [r2, #0]
 8003058:	07db      	lsls	r3, r3, #31
 800305a:	d4fc      	bmi.n	8003056 <VectorC8+0x66>
 800305c:	f897 c009 	ldrb.w	ip, [r7, #9]
 8003060:	687a      	ldr	r2, [r7, #4]
 8003062:	233d      	movs	r3, #61	; 0x3d
 8003064:	fa03 f30c 	lsl.w	r3, r3, ip
 8003068:	6013      	str	r3, [r2, #0]
  if (sr & I2C_SR1_BERR) {                          /* Bus error.           */
 800306a:	f3c0 2300 	ubfx	r3, r0, #8, #1
  if (sr & I2C_SR1_ARLO)                            /* Arbitration lost.    */
 800306e:	0582      	lsls	r2, r0, #22
    i2cp->errors |= I2C_ARBITRATION_LOST;
 8003070:	bf48      	it	mi
 8003072:	f043 0302 	orrmi.w	r3, r3, #2
  if (sr & I2C_SR1_AF) {                            /* Acknowledge fail.    */
 8003076:	0547      	lsls	r7, r0, #21
    i2cp->errors |= I2C_ARBITRATION_LOST;
 8003078:	608b      	str	r3, [r1, #8]
  if (sr & I2C_SR1_AF) {                            /* Acknowledge fail.    */
 800307a:	d50a      	bpl.n	8003092 <VectorC8+0xa2>
    i2cp->i2c->CR2 &= ~I2C_CR2_ITEVTEN;
 800307c:	6872      	ldr	r2, [r6, #4]
 800307e:	f422 7200 	bic.w	r2, r2, #512	; 0x200
 8003082:	6072      	str	r2, [r6, #4]
    i2cp->i2c->CR1 |= I2C_CR1_STOP;                 /* Setting stop bit.    */
 8003084:	6832      	ldr	r2, [r6, #0]
    i2cp->errors |= I2C_ACK_FAILURE;
 8003086:	f043 0304 	orr.w	r3, r3, #4
    i2cp->i2c->CR1 |= I2C_CR1_STOP;                 /* Setting stop bit.    */
 800308a:	f442 7200 	orr.w	r2, r2, #512	; 0x200
 800308e:	6032      	str	r2, [r6, #0]
    i2cp->errors |= I2C_ACK_FAILURE;
 8003090:	608b      	str	r3, [r1, #8]
  if (sr & I2C_SR1_OVR)                             /* Overrun.             */
 8003092:	0502      	lsls	r2, r0, #20
    i2cp->errors |= I2C_OVERRUN;
 8003094:	bf44      	itt	mi
 8003096:	f043 0308 	orrmi.w	r3, r3, #8
 800309a:	608b      	strmi	r3, [r1, #8]
  if (sr & I2C_SR1_TIMEOUT)                         /* SMBus Timeout.       */
 800309c:	0447      	lsls	r7, r0, #17
    i2cp->errors |= I2C_TIMEOUT;
 800309e:	bf44      	itt	mi
 80030a0:	f043 0320 	orrmi.w	r3, r3, #32
 80030a4:	608b      	strmi	r3, [r1, #8]
  if (sr & I2C_SR1_PECERR)                          /* PEC error.           */
 80030a6:	04c6      	lsls	r6, r0, #19
 80030a8:	d41c      	bmi.n	80030e4 <VectorC8+0xf4>
  if (sr & I2C_SR1_SMBALERT)                        /* SMBus alert.         */
 80030aa:	042a      	lsls	r2, r5, #16
 80030ac:	d41f      	bmi.n	80030ee <VectorC8+0xfe>
  if (i2cp->errors != I2C_NO_ERROR)
 80030ae:	bb0b      	cbnz	r3, 80030f4 <VectorC8+0x104>
 80030b0:	2230      	movs	r2, #48	; 0x30
 80030b2:	f382 8811 	msr	BASEPRI, r2
  if (unlikely((oip->dbg.isr_cnt <= (cnt_t)0) ||
 80030b6:	f8d4 3088 	ldr.w	r3, [r4, #136]	; 0x88
 80030ba:	2b00      	cmp	r3, #0
 80030bc:	dd40      	ble.n	8003140 <VectorC8+0x150>
 80030be:	f8d4 108c 	ldr.w	r1, [r4, #140]	; 0x8c
 80030c2:	2900      	cmp	r1, #0
 80030c4:	d13c      	bne.n	8003140 <VectorC8+0x150>
  oip->dbg.isr_cnt--;
 80030c6:	3b01      	subs	r3, #1
 80030c8:	f8c4 3088 	str.w	r3, [r4, #136]	; 0x88
 80030cc:	f381 8811 	msr	BASEPRI, r1
 80030d0:	f382 8811 	msr	BASEPRI, r2
 80030d4:	4b23      	ldr	r3, [pc, #140]	; (8003164 <VectorC8+0x174>)
 80030d6:	685b      	ldr	r3, [r3, #4]
 80030d8:	f413 6300 	ands.w	r3, r3, #2048	; 0x800
 80030dc:	d133      	bne.n	8003146 <VectorC8+0x156>
 80030de:	f383 8811 	msr	BASEPRI, r3
  i2c_lld_serve_error_interrupt(&I2CD2, sr);

  OSAL_IRQ_EPILOGUE();
}
 80030e2:	bdf8      	pop	{r3, r4, r5, r6, r7, pc}
    i2cp->errors |= I2C_PEC_ERROR;
 80030e4:	f043 0310 	orr.w	r3, r3, #16
  if (sr & I2C_SR1_SMBALERT)                        /* SMBus alert.         */
 80030e8:	0428      	lsls	r0, r5, #16
    i2cp->errors |= I2C_PEC_ERROR;
 80030ea:	608b      	str	r3, [r1, #8]
  if (sr & I2C_SR1_SMBALERT)                        /* SMBus alert.         */
 80030ec:	d502      	bpl.n	80030f4 <VectorC8+0x104>
    i2cp->errors |= I2C_SMB_ALERT;
 80030ee:	f043 0340 	orr.w	r3, r3, #64	; 0x40
 80030f2:	608b      	str	r3, [r1, #8]
 80030f4:	2330      	movs	r3, #48	; 0x30
 80030f6:	f383 8811 	msr	BASEPRI, r3
  if (unlikely((oip->dbg.isr_cnt <= (cnt_t)0) ||
 80030fa:	f8d4 3088 	ldr.w	r3, [r4, #136]	; 0x88
 80030fe:	2b00      	cmp	r3, #0
 8003100:	dd25      	ble.n	800314e <VectorC8+0x15e>
 8003102:	f8d4 308c 	ldr.w	r3, [r4, #140]	; 0x8c
 8003106:	bb13      	cbnz	r3, 800314e <VectorC8+0x15e>
  if (*trp != NULL) {
 8003108:	69c8      	ldr	r0, [r1, #28]
  oip->dbg.lock_cnt = (cnt_t)1;
 800310a:	2201      	movs	r2, #1
 800310c:	f8c4 208c 	str.w	r2, [r4, #140]	; 0x8c
 8003110:	b168      	cbz	r0, 800312e <VectorC8+0x13e>
    tp->u.rdymsg = msg;
 8003112:	f06f 0201 	mvn.w	r2, #1
    *trp = NULL;
 8003116:	61cb      	str	r3, [r1, #28]
    tp->u.rdymsg = msg;
 8003118:	6282      	str	r2, [r0, #40]	; 0x28
    (void) chSchReadyI(tp);
 800311a:	f7fd fff9 	bl	8001110 <chSchReadyI.isra.0>
  if (unlikely((oip->dbg.isr_cnt <= (cnt_t)0) ||
 800311e:	f8d4 3088 	ldr.w	r3, [r4, #136]	; 0x88
 8003122:	2b00      	cmp	r3, #0
 8003124:	dd16      	ble.n	8003154 <VectorC8+0x164>
 8003126:	f8d4 308c 	ldr.w	r3, [r4, #140]	; 0x8c
 800312a:	2b00      	cmp	r3, #0
 800312c:	dd12      	ble.n	8003154 <VectorC8+0x164>
  oip->dbg.lock_cnt = (cnt_t)0;
 800312e:	2300      	movs	r3, #0
 8003130:	f8c4 308c 	str.w	r3, [r4, #140]	; 0x8c
 8003134:	f383 8811 	msr	BASEPRI, r3
 8003138:	e7ba      	b.n	80030b0 <VectorC8+0xc0>
    chSysHalt("SV#8");
 800313a:	480b      	ldr	r0, [pc, #44]	; (8003168 <VectorC8+0x178>)
 800313c:	f7fd fd48 	bl	8000bd0 <chSysHalt>
    chSysHalt("SV#9");
 8003140:	480a      	ldr	r0, [pc, #40]	; (800316c <VectorC8+0x17c>)
 8003142:	f7fd fd45 	bl	8000bd0 <chSysHalt>
}
 8003146:	e8bd 40f8 	ldmia.w	sp!, {r3, r4, r5, r6, r7, lr}
 800314a:	f7fe bd29 	b.w	8001ba0 <__port_irq_epilogue.part.0>
    chSysHalt("SV#6");
 800314e:	4808      	ldr	r0, [pc, #32]	; (8003170 <VectorC8+0x180>)
 8003150:	f7fd fd3e 	bl	8000bd0 <chSysHalt>
    chSysHalt("SV#7");
 8003154:	4807      	ldr	r0, [pc, #28]	; (8003174 <VectorC8+0x184>)
 8003156:	f7fd fd3b 	bl	8000bd0 <chSysHalt>
 800315a:	bf00      	nop
 800315c:	2000087c 	.word	0x2000087c
 8003160:	200009f0 	.word	0x200009f0
 8003164:	e000ed00 	.word	0xe000ed00
 8003168:	08004cd0 	.word	0x08004cd0
 800316c:	08004cd8 	.word	0x08004cd8
 8003170:	08004c88 	.word	0x08004c88
 8003174:	08004ca0 	.word	0x08004ca0
	...

08003180 <chSchDoPreemption>:
  thread_t *otp = __instance_get_currthread(oip);
 8003180:	4a12      	ldr	r2, [pc, #72]	; (80031cc <chSchDoPreemption+0x4c>)
  ch_priority_queue_t *p = pqp->next;
 8003182:	6810      	ldr	r0, [r2, #0]
 8003184:	68d1      	ldr	r1, [r2, #12]
  pqp->next       = p->next;
 8003186:	6803      	ldr	r3, [r0, #0]
static void __sch_reschedule_ahead(void) {
 8003188:	b510      	push	{r4, lr}
  ntp->state = CH_STATE_CURRENT;
 800318a:	2401      	movs	r4, #1
  pqp->next->prev = pqp;
 800318c:	605a      	str	r2, [r3, #4]
 800318e:	f880 4024 	strb.w	r4, [r0, #36]	; 0x24
  tp->state = CH_STATE_READY;
 8003192:	2400      	movs	r4, #0
  pqp->next       = p->next;
 8003194:	6013      	str	r3, [r2, #0]
 8003196:	f881 4024 	strb.w	r4, [r1, #36]	; 0x24
  return threadref(ch_pqueue_insert_ahead(&tp->owner->rlist.pqueue,
 800319a:	698b      	ldr	r3, [r1, #24]
  } while (unlikely(pqp->prio > p->prio));
 800319c:	688c      	ldr	r4, [r1, #8]
  __instance_set_currthread(oip, ntp);
 800319e:	60d0      	str	r0, [r2, #12]
    pqp = pqp->next;
 80031a0:	681b      	ldr	r3, [r3, #0]
  } while (unlikely(pqp->prio > p->prio));
 80031a2:	689a      	ldr	r2, [r3, #8]
 80031a4:	42a2      	cmp	r2, r4
 80031a6:	d8fb      	bhi.n	80031a0 <chSchDoPreemption+0x20>
  p->prev       = pqp->prev;
 80031a8:	685a      	ldr	r2, [r3, #4]
 80031aa:	e9c1 3200 	strd	r3, r2, [r1]
  p->prev->next = p;
 80031ae:	6011      	str	r1, [r2, #0]
  pqp->prev     = p;
 80031b0:	6059      	str	r1, [r3, #4]
  __ASM volatile ("MRS %0, psp"  : "=r" (result) );
 80031b2:	f3ef 8309 	mrs	r3, PSP
  chSysSwitch(ntp, otp);
 80031b6:	6a0a      	ldr	r2, [r1, #32]
 80031b8:	3b64      	subs	r3, #100	; 0x64
 80031ba:	429a      	cmp	r2, r3
 80031bc:	d803      	bhi.n	80031c6 <chSchDoPreemption+0x46>
}
 80031be:	e8bd 4010 	ldmia.w	sp!, {r4, lr}
  chSysSwitch(ntp, otp);
 80031c2:	f7fd b89f 	b.w	8000304 <__port_switch>
 80031c6:	4802      	ldr	r0, [pc, #8]	; (80031d0 <chSchDoPreemption+0x50>)
 80031c8:	f7fd fd02 	bl	8000bd0 <chSysHalt>
 80031cc:	200009f0 	.word	0x200009f0
 80031d0:	08004cb0 	.word	0x08004cb0
	...

080031e0 <myprintf>:
static mutex_t mutex_bsp2;


static uint32_t beep_ms = 200;

int myprintf(const char *fmt, ...) {
 80031e0:	b40f      	push	{r0, r1, r2, r3}
 80031e2:	e92d 4ff0 	stmdb	sp!, {r4, r5, r6, r7, r8, r9, sl, fp, lr}
 80031e6:	ed2d 8b06 	vpush	{d8-d10}
 80031ea:	b091      	sub	sp, #68	; 0x44
  __ASM volatile ("MSR basepri, %0" : : "r" (basePri) : "memory");
 80031ec:	2330      	movs	r3, #48	; 0x30
 80031ee:	f8dd 9080 	ldr.w	r9, [sp, #128]	; 0x80
 80031f2:	f383 8811 	msr	BASEPRI, r3
  if (unlikely((oip->dbg.isr_cnt != (cnt_t)0) ||
 80031f6:	f8df b258 	ldr.w	fp, [pc, #600]	; 8003450 <myprintf+0x270>
 80031fa:	e9db 3222 	ldrd	r3, r2, [fp, #136]	; 0x88
 80031fe:	4313      	orrs	r3, r2
 8003200:	f040 8190 	bne.w	8003524 <myprintf+0x344>

  chDbgCheckClassS();
  chDbgCheck(mp != NULL);

  /* Is the mutex already locked? */
  if (mp->owner != NULL) {
 8003204:	4a90      	ldr	r2, [pc, #576]	; (8003448 <myprintf+0x268>)
  return __sch_get_currthread();
 8003206:	f8db 400c 	ldr.w	r4, [fp, #12]
 800320a:	6890      	ldr	r0, [r2, #8]
  oip->dbg.lock_cnt = (cnt_t)1;
 800320c:	2301      	movs	r3, #1
 800320e:	f8cb 308c 	str.w	r3, [fp, #140]	; 0x8c
 8003212:	2800      	cmp	r0, #0
 8003214:	f000 8288 	beq.w	8003728 <myprintf+0x548>
         priority of the running thread requesting the mutex.*/
      thread_t *tp = mp->owner;

      /* Does the running thread have higher priority than the mutex
         owning thread? */
      while (tp->hdr.pqueue.prio < currtp->hdr.pqueue.prio) {
 8003218:	68a3      	ldr	r3, [r4, #8]
 800321a:	6882      	ldr	r2, [r0, #8]
 800321c:	429a      	cmp	r2, r3
 800321e:	d20b      	bcs.n	8003238 <myprintf+0x58>
        /* Make priority of thread tp match the running thread's priority.*/
        tp->hdr.pqueue.prio = currtp->hdr.pqueue.prio;
 8003220:	6083      	str	r3, [r0, #8]

        /* The following states need priority queues reordering.*/
        switch (tp->state) {
 8003222:	f890 3024 	ldrb.w	r3, [r0, #36]	; 0x24
 8003226:	2b06      	cmp	r3, #6
 8003228:	f000 81cb 	beq.w	80035c2 <myprintf+0x3e2>
 800322c:	2b07      	cmp	r3, #7
 800322e:	f000 81ad 	beq.w	800358c <myprintf+0x3ac>
 8003232:	2b00      	cmp	r3, #0
 8003234:	f000 81be 	beq.w	80035b4 <myprintf+0x3d4>
/* If the performance code path has been chosen then all the following
   functions are inlined into the various kernel modules.*/
#if CH_CFG_OPTIMIZE_SPEED == TRUE
static inline void ch_sch_prio_insert(ch_queue_t *qp, ch_queue_t *tp) {

  ch_queue_t *cp = qp;
 8003238:	4b83      	ldr	r3, [pc, #524]	; (8003448 <myprintf+0x268>)
 800323a:	e003      	b.n	8003244 <myprintf+0x64>
  do {
    cp = cp->next;
  } while ((cp != qp) &&
 800323c:	6899      	ldr	r1, [r3, #8]
 800323e:	68a2      	ldr	r2, [r4, #8]
 8003240:	4291      	cmp	r1, r2
 8003242:	d303      	bcc.n	800324c <myprintf+0x6c>
    cp = cp->next;
 8003244:	681b      	ldr	r3, [r3, #0]
  } while ((cp != qp) &&
 8003246:	4a80      	ldr	r2, [pc, #512]	; (8003448 <myprintf+0x268>)
 8003248:	4293      	cmp	r3, r2
 800324a:	d1f7      	bne.n	800323c <myprintf+0x5c>
           (threadref(cp)->hdr.pqueue.prio >= threadref(tp)->hdr.pqueue.prio));
  tp->next       = cp;
  tp->prev       = cp->prev;
 800324c:	685a      	ldr	r2, [r3, #4]
  tp->next       = cp;
 800324e:	6023      	str	r3, [r4, #0]
  tp->prev       = cp->prev;
 8003250:	6062      	str	r2, [r4, #4]
  tp->prev->next = tp;
 8003252:	6014      	str	r4, [r2, #0]
  cp->prev       = tp;
 8003254:	605c      	str	r4, [r3, #4]
        break;
      }

      /* Sleep on the mutex.*/
      ch_sch_prio_insert(&mp->queue, &currtp->hdr.queue);
      currtp->u.wtmtxp = mp;
 8003256:	4b7c      	ldr	r3, [pc, #496]	; (8003448 <myprintf+0x268>)
 8003258:	62a3      	str	r3, [r4, #40]	; 0x28
      chSchGoSleepS(CH_STATE_WTMTX);
 800325a:	2006      	movs	r0, #6
 800325c:	f7fe f8d8 	bl	8001410 <chSchGoSleepS>
  if (unlikely((oip->dbg.isr_cnt != (cnt_t)0) ||
 8003260:	f8db 3088 	ldr.w	r3, [fp, #136]	; 0x88
 8003264:	2b00      	cmp	r3, #0
 8003266:	f040 825c 	bne.w	8003722 <myprintf+0x542>
 800326a:	f8db 308c 	ldr.w	r3, [fp, #140]	; 0x8c
 800326e:	2b00      	cmp	r3, #0
 8003270:	f340 8257 	ble.w	8003722 <myprintf+0x542>
  oip->dbg.lock_cnt = (cnt_t)0;
 8003274:	2300      	movs	r3, #0
 8003276:	f8cb 308c 	str.w	r3, [fp, #140]	; 0x8c
 800327a:	f383 8811 	msr	BASEPRI, r3
#else
  char tmpbuf[MAX_FILLER + 1];
#endif

  while (true) {
    c = *fmt++;
 800327e:	4648      	mov	r0, r9
  va_list ap;
  int formatted_bytes;
  chMtxLock(&mutex_bsp2);
  va_start(ap, fmt);
 8003280:	aa21      	add	r2, sp, #132	; 0x84
 8003282:	f810 1b01 	ldrb.w	r1, [r0], #1
 8003286:	9209      	str	r2, [sp, #36]	; 0x24
  formatted_bytes = chvprintf(bsp2, fmt, ap);
 8003288:	9203      	str	r2, [sp, #12]
    if (c == 0) {
 800328a:	2900      	cmp	r1, #0
 800328c:	f000 836a 	beq.w	8003964 <myprintf+0x784>
 8003290:	f8df a1b8 	ldr.w	sl, [pc, #440]	; 800344c <myprintf+0x26c>
 8003294:	461f      	mov	r7, r3
 8003296:	e00c      	b.n	80032b2 <myprintf+0xd2>
      return n;
    }
    
    if (c != '%') {
      streamPut(chp, (uint8_t)c);
 8003298:	f8da 3000 	ldr.w	r3, [sl]
      n++;
      continue;
 800329c:	4681      	mov	r9, r0
      streamPut(chp, (uint8_t)c);
 800329e:	68db      	ldr	r3, [r3, #12]
 80032a0:	486a      	ldr	r0, [pc, #424]	; (800344c <myprintf+0x26c>)
      n++;
 80032a2:	3701      	adds	r7, #1
      streamPut(chp, (uint8_t)c);
 80032a4:	4798      	blx	r3
    c = *fmt++;
 80032a6:	4648      	mov	r0, r9
 80032a8:	f810 1b01 	ldrb.w	r1, [r0], #1
    if (c == 0) {
 80032ac:	2900      	cmp	r1, #0
 80032ae:	f000 80e3 	beq.w	8003478 <myprintf+0x298>
    if (c != '%') {
 80032b2:	2925      	cmp	r1, #37	; 0x25
 80032b4:	d1f0      	bne.n	8003298 <myprintf+0xb8>
    p = tmpbuf;
    s = tmpbuf;

    /* Alignment mode.*/
    left_align = false;
    if (*fmt == '-') {
 80032b6:	f899 3001 	ldrb.w	r3, [r9, #1]
 80032ba:	2b2d      	cmp	r3, #45	; 0x2d
      fmt++;
 80032bc:	bf06      	itte	eq
 80032be:	f109 0002 	addeq.w	r0, r9, #2
      left_align = true;
 80032c2:	2301      	moveq	r3, #1
    left_align = false;
 80032c4:	2300      	movne	r3, #0
 80032c6:	9302      	str	r3, [sp, #8]
    }

    /* Sign mode.*/
    do_sign = false;
    if (*fmt == '+') {
 80032c8:	7803      	ldrb	r3, [r0, #0]
 80032ca:	2b2b      	cmp	r3, #43	; 0x2b
      do_sign = true;
    }

    /* Filler mode.*/
    filler = ' ';
    if (*fmt == '0') {
 80032cc:	bf03      	ittte	eq
 80032ce:	7843      	ldrbeq	r3, [r0, #1]
      do_sign = true;
 80032d0:	2501      	moveq	r5, #1
      fmt++;
 80032d2:	3001      	addeq	r0, #1
    do_sign = false;
 80032d4:	2500      	movne	r5, #0
    if (*fmt == '0') {
 80032d6:	2b30      	cmp	r3, #48	; 0x30
      fmt++;
 80032d8:	bf03      	ittte	eq
 80032da:	3001      	addeq	r0, #1
      filler = '0';
 80032dc:	461e      	moveq	r6, r3
    }
    
    /* Width modifier.*/
    if ( *fmt == '*') {
 80032de:	7803      	ldrbeq	r3, [r0, #0]
    filler = ' ';
 80032e0:	2620      	movne	r6, #32
    if ( *fmt == '*') {
 80032e2:	2b2a      	cmp	r3, #42	; 0x2a
 80032e4:	d149      	bne.n	800337a <myprintf+0x19a>
      width = va_arg(ap, int);
      ++fmt;
      c = *fmt++;
 80032e6:	7843      	ldrb	r3, [r0, #1]
      width = va_arg(ap, int);
 80032e8:	9a03      	ldr	r2, [sp, #12]
      }
    }
    
    /* Precision modifier.*/
    precision = 0;
    if (c == '.') {
 80032ea:	2b2e      	cmp	r3, #46	; 0x2e
      width = va_arg(ap, int);
 80032ec:	f852 4b04 	ldr.w	r4, [r2], #4
      c = *fmt++;
 80032f0:	f100 0902 	add.w	r9, r0, #2
    if (c == '.') {
 80032f4:	d057      	beq.n	80033a6 <myprintf+0x1c6>
    precision = 0;
 80032f6:	f04f 0800 	mov.w	r8, #0
        }
      }
    }
    
    /* Long modifier.*/
    if (c == 'l' || c == 'L') {
 80032fa:	f003 01df 	and.w	r1, r3, #223	; 0xdf
 80032fe:	294c      	cmp	r1, #76	; 0x4c
 8003300:	d061      	beq.n	80033c6 <myprintf+0x1e6>
    else {
      is_long = (c >= 'A') && (c <= 'Z');
    }

    /* Command decoding.*/
    switch (c) {
 8003302:	f1a3 0144 	sub.w	r1, r3, #68	; 0x44
 8003306:	2934      	cmp	r1, #52	; 0x34
 8003308:	f200 810f 	bhi.w	800352a <myprintf+0x34a>
 800330c:	e8df f011 	tbh	[pc, r1, lsl #1]
 8003310:	010d0173 	.word	0x010d0173
 8003314:	010d010d 	.word	0x010d010d
 8003318:	0173010d 	.word	0x0173010d
 800331c:	010d010d 	.word	0x010d010d
 8003320:	010d010d 	.word	0x010d010d
 8003324:	01be010d 	.word	0x01be010d
 8003328:	010d0185 	.word	0x010d0185
 800332c:	010d010d 	.word	0x010d010d
 8003330:	01c1010d 	.word	0x01c1010d
 8003334:	010d010d 	.word	0x010d010d
 8003338:	010d0185 	.word	0x010d0185
 800333c:	010d010d 	.word	0x010d010d
 8003340:	010d010d 	.word	0x010d010d
 8003344:	010d010d 	.word	0x010d010d
 8003348:	010d010d 	.word	0x010d010d
 800334c:	01f9010d 	.word	0x01f9010d
 8003350:	010d0173 	.word	0x010d0173
 8003354:	010d01e5 	.word	0x010d01e5
 8003358:	0173010d 	.word	0x0173010d
 800335c:	010d010d 	.word	0x010d010d
 8003360:	010d010d 	.word	0x010d010d
 8003364:	01be010d 	.word	0x01be010d
 8003368:	010d0185 	.word	0x010d0185
 800336c:	01c4010d 	.word	0x01c4010d
 8003370:	01c1010d 	.word	0x01c1010d
 8003374:	010d010d 	.word	0x010d010d
 8003378:	0185      	.short	0x0185
        c = *fmt++;
 800337a:	f100 0901 	add.w	r9, r0, #1
        if (c == 0) {
 800337e:	2b00      	cmp	r3, #0
 8003380:	d07a      	beq.n	8003478 <myprintf+0x298>
      width = 0;
 8003382:	2400      	movs	r4, #0
 8003384:	e007      	b.n	8003396 <myprintf+0x1b6>
        c = *fmt++;
 8003386:	f819 3b01 	ldrb.w	r3, [r9], #1
          width = width * 10 + c;
 800338a:	eb04 0484 	add.w	r4, r4, r4, lsl #2
 800338e:	eb02 0444 	add.w	r4, r2, r4, lsl #1
        if (c == 0) {
 8003392:	2b00      	cmp	r3, #0
 8003394:	d070      	beq.n	8003478 <myprintf+0x298>
        if (c >= '0' && c <= '9') {
 8003396:	f1a3 0230 	sub.w	r2, r3, #48	; 0x30
 800339a:	b2d2      	uxtb	r2, r2
 800339c:	2a09      	cmp	r2, #9
 800339e:	d9f2      	bls.n	8003386 <myprintf+0x1a6>
    if (c == '.') {
 80033a0:	2b2e      	cmp	r3, #46	; 0x2e
 80033a2:	9a03      	ldr	r2, [sp, #12]
 80033a4:	d1a7      	bne.n	80032f6 <myprintf+0x116>
      c = *fmt++;
 80033a6:	f899 3000 	ldrb.w	r3, [r9]
      if (c == 0) {
 80033aa:	2b00      	cmp	r3, #0
 80033ac:	d064      	beq.n	8003478 <myprintf+0x298>
      if (c == '*') {
 80033ae:	2b2a      	cmp	r3, #42	; 0x2a
 80033b0:	d150      	bne.n	8003454 <myprintf+0x274>
        c = *fmt++;
 80033b2:	f899 3001 	ldrb.w	r3, [r9, #1]
        precision = va_arg(ap, int);
 80033b6:	f852 8b04 	ldr.w	r8, [r2], #4
    if (c == 'l' || c == 'L') {
 80033ba:	f003 01df 	and.w	r1, r3, #223	; 0xdf
 80033be:	294c      	cmp	r1, #76	; 0x4c
        c = *fmt++;
 80033c0:	f109 0902 	add.w	r9, r9, #2
    if (c == 'l' || c == 'L') {
 80033c4:	d19d      	bne.n	8003302 <myprintf+0x122>
      c = *fmt++;
 80033c6:	f819 3b01 	ldrb.w	r3, [r9], #1
      if (c == 0) {
 80033ca:	2b00      	cmp	r3, #0
 80033cc:	d054      	beq.n	8003478 <myprintf+0x298>
    switch (c) {
 80033ce:	f1a3 0144 	sub.w	r1, r3, #68	; 0x44
 80033d2:	2934      	cmp	r1, #52	; 0x34
 80033d4:	f200 80a9 	bhi.w	800352a <myprintf+0x34a>
 80033d8:	e8df f011 	tbh	[pc, r1, lsl #1]
 80033dc:	00a7010d 	.word	0x00a7010d
 80033e0:	00a700a7 	.word	0x00a700a7
 80033e4:	010d00a7 	.word	0x010d00a7
 80033e8:	00a700a7 	.word	0x00a700a7
 80033ec:	00a700a7 	.word	0x00a700a7
 80033f0:	015800a7 	.word	0x015800a7
 80033f4:	00a7011f 	.word	0x00a7011f
 80033f8:	00a700a7 	.word	0x00a700a7
 80033fc:	015b00a7 	.word	0x015b00a7
 8003400:	00a700a7 	.word	0x00a700a7
 8003404:	00a7011f 	.word	0x00a7011f
 8003408:	00a700a7 	.word	0x00a700a7
 800340c:	00a700a7 	.word	0x00a700a7
 8003410:	00a700a7 	.word	0x00a700a7
 8003414:	00a700a7 	.word	0x00a700a7
 8003418:	019300a7 	.word	0x019300a7
 800341c:	00a7010d 	.word	0x00a7010d
 8003420:	00a7017f 	.word	0x00a7017f
 8003424:	010d00a7 	.word	0x010d00a7
 8003428:	00a700a7 	.word	0x00a700a7
 800342c:	00a700a7 	.word	0x00a700a7
 8003430:	015800a7 	.word	0x015800a7
 8003434:	00a7011f 	.word	0x00a7011f
 8003438:	015e00a7 	.word	0x015e00a7
 800343c:	015b00a7 	.word	0x015b00a7
 8003440:	00a700a7 	.word	0x00a700a7
 8003444:	011f      	.short	0x011f
 8003446:	bf00      	nop
 8003448:	20000d7c 	.word	0x20000d7c
 800344c:	20000934 	.word	0x20000934
 8003450:	200009f0 	.word	0x200009f0
      c = *fmt++;
 8003454:	f109 0901 	add.w	r9, r9, #1
    precision = 0;
 8003458:	f04f 0800 	mov.w	r8, #0
        while (c >= '0' && c <= '9') {
 800345c:	f1a3 0130 	sub.w	r1, r3, #48	; 0x30
 8003460:	b2c9      	uxtb	r1, r1
 8003462:	2909      	cmp	r1, #9
 8003464:	f63f af49 	bhi.w	80032fa <myprintf+0x11a>
          c = *fmt++;
 8003468:	f819 3b01 	ldrb.w	r3, [r9], #1
          precision = precision * 10 + c;
 800346c:	eb08 0888 	add.w	r8, r8, r8, lsl #2
 8003470:	eb01 0848 	add.w	r8, r1, r8, lsl #1
          if (c == 0) {
 8003474:	2b00      	cmp	r3, #0
 8003476:	d1f1      	bne.n	800345c <myprintf+0x27c>
 8003478:	463e      	mov	r6, r7
 800347a:	f8db 100c 	ldr.w	r1, [fp, #12]
 800347e:	2330      	movs	r3, #48	; 0x30
 8003480:	f383 8811 	msr	BASEPRI, r3
  if (unlikely((oip->dbg.isr_cnt != (cnt_t)0) ||
 8003484:	e9db 3222 	ldrd	r3, r2, [fp, #136]	; 0x88
 8003488:	431a      	orrs	r2, r3
 800348a:	d14b      	bne.n	8003524 <myprintf+0x344>
  return (bool)(qp->next != qp);
 800348c:	4da9      	ldr	r5, [pc, #676]	; (8003734 <myprintf+0x554>)
 800348e:	6828      	ldr	r0, [r5, #0]
    chDbgAssert(currtp->mtxlist == mp, "not next in list");

    /* Removes the top mutex from the thread's owned mutexes list and marks
       it as not owned. Note, it is assumed to be the same mutex passed as
       parameter of this function.*/
    currtp->mtxlist = mp->next;
 8003490:	68eb      	ldr	r3, [r5, #12]
  oip->dbg.lock_cnt = (cnt_t)1;
 8003492:	2401      	movs	r4, #1

    /* If a thread is waiting on the mutex then the fun part begins.*/
    if (chMtxQueueNotEmptyS(mp)) {
 8003494:	42a8      	cmp	r0, r5
 8003496:	f8cb 408c 	str.w	r4, [fp, #140]	; 0x8c
    currtp->mtxlist = mp->next;
 800349a:	63cb      	str	r3, [r1, #60]	; 0x3c
    if (chMtxQueueNotEmptyS(mp)) {
 800349c:	f000 8173 	beq.w	8003786 <myprintf+0x5a6>
      thread_t *tp;

      /* Recalculates the optimal thread priority by scanning the owned
         mutexes list.*/
      tprio_t newprio = currtp->realprio;
 80034a0:	6c0c      	ldr	r4, [r1, #64]	; 0x40
      lmp = currtp->mtxlist;
      while (lmp != NULL) {
 80034a2:	b14b      	cbz	r3, 80034b8 <myprintf+0x2d8>
 80034a4:	681a      	ldr	r2, [r3, #0]
        /* If the highest priority thread waiting in the mutexes list has a
           greater priority than the current thread base priority then the
           final priority will have at least that priority.*/
        if (chMtxQueueNotEmptyS(lmp) &&
 80034a6:	4293      	cmp	r3, r2
 80034a8:	d003      	beq.n	80034b2 <myprintf+0x2d2>
 80034aa:	6892      	ldr	r2, [r2, #8]
 80034ac:	4294      	cmp	r4, r2
 80034ae:	bf38      	it	cc
 80034b0:	4614      	movcc	r4, r2
            ((threadref(lmp->queue.next))->hdr.pqueue.prio > newprio)) {
          newprio = (threadref(lmp->queue.next))->hdr.pqueue.prio;
        }
        lmp = lmp->next;
 80034b2:	68db      	ldr	r3, [r3, #12]
      while (lmp != NULL) {
 80034b4:	2b00      	cmp	r3, #0
 80034b6:	d1f5      	bne.n	80034a4 <myprintf+0x2c4>
      }

      /* Assigns to the current thread the highest priority among all the
         waiting threads.*/
      currtp->hdr.pqueue.prio = newprio;
 80034b8:	608c      	str	r4, [r1, #8]
  qp->next       = p->next;
 80034ba:	6803      	ldr	r3, [r0, #0]
 80034bc:	4a9d      	ldr	r2, [pc, #628]	; (8003734 <myprintf+0x554>)
  qp->next->prev = qp;
 80034be:	605a      	str	r2, [r3, #4]
  qp->next       = p->next;
 80034c0:	6013      	str	r3, [r2, #0]
#if CH_CFG_USE_MUTEXES_RECURSIVE == TRUE
      mp->cnt = (cnt_t)1;
#endif
      tp = threadref(ch_queue_fifo_remove(&mp->queue));
      mp->owner = tp;
      mp->next = tp->mtxlist;
 80034c2:	6bc3      	ldr	r3, [r0, #60]	; 0x3c
      tp->mtxlist = mp;
 80034c4:	63c2      	str	r2, [r0, #60]	; 0x3c
      mp->next = tp->mtxlist;
 80034c6:	e9c2 0302 	strd	r0, r3, [r2, #8]

      /* Note, not using chSchWakeupS() because that function expects the
         current thread to have the higher or equal priority than the ones
         in the ready list. This is not necessarily true here because we
         just changed priority.*/
      (void) chSchReadyI(tp);
 80034ca:	f7fd fe21 	bl	8001110 <chSchReadyI.isra.0>
  if (unlikely((oip->dbg.isr_cnt != (cnt_t)0) ||
 80034ce:	f8db 3088 	ldr.w	r3, [fp, #136]	; 0x88
 80034d2:	2b00      	cmp	r3, #0
 80034d4:	f040 8243 	bne.w	800395e <myprintf+0x77e>
 80034d8:	f8db 308c 	ldr.w	r3, [fp, #140]	; 0x8c
 80034dc:	2b00      	cmp	r3, #0
 80034de:	f340 823e 	ble.w	800395e <myprintf+0x77e>
  if (likely(firstprio(&oip->rlist.pqueue) > tp->hdr.pqueue.prio)) {
 80034e2:	f8db 2000 	ldr.w	r2, [fp]
 80034e6:	f8db 300c 	ldr.w	r3, [fp, #12]
 80034ea:	6892      	ldr	r2, [r2, #8]
 80034ec:	689b      	ldr	r3, [r3, #8]
 80034ee:	429a      	cmp	r2, r3
 80034f0:	d90b      	bls.n	800350a <myprintf+0x32a>
    __sch_reschedule_ahead();
 80034f2:	f7ff fe45 	bl	8003180 <chSchDoPreemption>
  if (unlikely((oip->dbg.isr_cnt != (cnt_t)0) ||
 80034f6:	f8db 3088 	ldr.w	r3, [fp, #136]	; 0x88
 80034fa:	2b00      	cmp	r3, #0
 80034fc:	f040 8111 	bne.w	8003722 <myprintf+0x542>
 8003500:	f8db 308c 	ldr.w	r3, [fp, #140]	; 0x8c
 8003504:	2b00      	cmp	r3, #0
 8003506:	f340 810c 	ble.w	8003722 <myprintf+0x542>
  oip->dbg.lock_cnt = (cnt_t)0;
 800350a:	2300      	movs	r3, #0
 800350c:	f8cb 308c 	str.w	r3, [fp, #140]	; 0x8c
 8003510:	f383 8811 	msr	BASEPRI, r3
  va_end(ap);
  chMtxUnlock(&mutex_bsp2);

  return formatted_bytes;
}
 8003514:	4630      	mov	r0, r6
 8003516:	b011      	add	sp, #68	; 0x44
 8003518:	ecbd 8b06 	vpop	{d8-d10}
 800351c:	e8bd 4ff0 	ldmia.w	sp!, {r4, r5, r6, r7, r8, r9, sl, fp, lr}
 8003520:	b004      	add	sp, #16
 8003522:	4770      	bx	lr
    chSysHalt("SV#4");
 8003524:	4884      	ldr	r0, [pc, #528]	; (8003738 <myprintf+0x558>)
 8003526:	f7fd fb53 	bl	8000bd0 <chSysHalt>
        l = va_arg(ap, unsigned int);
      }
      p = ch_ltoa(p, l, c);
      break;
    default:
      *p++ = c;
 800352a:	f88d 3028 	strb.w	r3, [sp, #40]	; 0x28
    }
    i = (int)(p - s);
    if ((width -= i) < 0) {
      width = 0;
    }
    if (left_align == false) {
 800352e:	9b02      	ldr	r3, [sp, #8]
      break;
 8003530:	9203      	str	r2, [sp, #12]
 8003532:	3c01      	subs	r4, #1
 8003534:	ea24 78e4 	bic.w	r8, r4, r4, asr #31
    if (left_align == false) {
 8003538:	2b00      	cmp	r3, #0
 800353a:	f040 80ef 	bne.w	800371c <myprintf+0x53c>
      width = -width;
    }
    if (width < 0) {
 800353e:	9b02      	ldr	r3, [sp, #8]
 8003540:	9301      	str	r3, [sp, #4]
 8003542:	2c00      	cmp	r4, #0
      width = -width;
 8003544:	f1c8 0800 	rsb	r8, r8, #0
    if (width < 0) {
 8003548:	f300 8120 	bgt.w	800378c <myprintf+0x5ac>
    if (left_align == false) {
 800354c:	ad0a      	add	r5, sp, #40	; 0x28
 800354e:	9b01      	ldr	r3, [sp, #4]
 8003550:	1c5c      	adds	r4, r3, #1
 8003552:	442c      	add	r4, r5
        streamPut(chp, (uint8_t)filler);
        n++;
      } while (++width != 0);
    }
    while (--i >= 0) {
      streamPut(chp, (uint8_t)*s++);
 8003554:	f8da 3000 	ldr.w	r3, [sl]
 8003558:	f815 1b01 	ldrb.w	r1, [r5], #1
 800355c:	68db      	ldr	r3, [r3, #12]
 800355e:	4650      	mov	r0, sl
 8003560:	4798      	blx	r3
    while (--i >= 0) {
 8003562:	42a5      	cmp	r5, r4
 8003564:	d1f6      	bne.n	8003554 <myprintf+0x374>
      n++;
 8003566:	9b01      	ldr	r3, [sp, #4]
 8003568:	3701      	adds	r7, #1
 800356a:	443b      	add	r3, r7
 800356c:	461f      	mov	r7, r3
    }

    while (width) {
 800356e:	f1b8 0f00 	cmp.w	r8, #0
 8003572:	f43f ae98 	beq.w	80032a6 <myprintf+0xc6>
 8003576:	4644      	mov	r4, r8
      streamPut(chp, (uint8_t)filler);
 8003578:	f8da 3000 	ldr.w	r3, [sl]
 800357c:	4631      	mov	r1, r6
 800357e:	68db      	ldr	r3, [r3, #12]
 8003580:	4650      	mov	r0, sl
 8003582:	4798      	blx	r3
    while (width) {
 8003584:	3c01      	subs	r4, #1
 8003586:	d1f7      	bne.n	8003578 <myprintf+0x398>
      n++;
 8003588:	4447      	add	r7, r8
 800358a:	e68c      	b.n	80032a6 <myprintf+0xc6>
  p->prev->next = p->next;
 800358c:	e9d0 3200 	ldrd	r3, r2, [r0]
          ch_sch_prio_insert(&tp->u.wtmtxp->queue,
 8003590:	6a85      	ldr	r5, [r0, #40]	; 0x28
 8003592:	6013      	str	r3, [r2, #0]
  p->next->prev = p->prev;
 8003594:	605a      	str	r2, [r3, #4]
  ch_queue_t *cp = qp;
 8003596:	462b      	mov	r3, r5
 8003598:	e003      	b.n	80035a2 <myprintf+0x3c2>
  } while ((cp != qp) &&
 800359a:	6899      	ldr	r1, [r3, #8]
 800359c:	6882      	ldr	r2, [r0, #8]
 800359e:	4291      	cmp	r1, r2
 80035a0:	d302      	bcc.n	80035a8 <myprintf+0x3c8>
    cp = cp->next;
 80035a2:	681b      	ldr	r3, [r3, #0]
  } while ((cp != qp) &&
 80035a4:	429d      	cmp	r5, r3
 80035a6:	d1f8      	bne.n	800359a <myprintf+0x3ba>
  tp->prev       = cp->prev;
 80035a8:	685a      	ldr	r2, [r3, #4]
  tp->next       = cp;
 80035aa:	6003      	str	r3, [r0, #0]
  tp->prev       = cp->prev;
 80035ac:	6042      	str	r2, [r0, #4]
  tp->prev->next = tp;
 80035ae:	6010      	str	r0, [r2, #0]
  cp->prev       = tp;
 80035b0:	6058      	str	r0, [r3, #4]
}
 80035b2:	e641      	b.n	8003238 <myprintf+0x58>
  p->prev->next = p->next;
 80035b4:	e9d0 3200 	ldrd	r3, r2, [r0]
 80035b8:	6013      	str	r3, [r2, #0]
  p->next->prev = p->prev;
 80035ba:	605a      	str	r2, [r3, #4]
          (void) chSchReadyI(threadref(ch_queue_dequeue(&tp->hdr.queue)));
 80035bc:	f7fd fda8 	bl	8001110 <chSchReadyI.isra.0>
          break;
 80035c0:	e63a      	b.n	8003238 <myprintf+0x58>
  p->prev->next = p->next;
 80035c2:	e9d0 3200 	ldrd	r3, r2, [r0]
          ch_sch_prio_insert(&tp->u.wtmtxp->queue,
 80035c6:	6a85      	ldr	r5, [r0, #40]	; 0x28
 80035c8:	6013      	str	r3, [r2, #0]
  p->next->prev = p->prev;
 80035ca:	605a      	str	r2, [r3, #4]
  ch_queue_t *cp = qp;
 80035cc:	462b      	mov	r3, r5
 80035ce:	e003      	b.n	80035d8 <myprintf+0x3f8>
  } while ((cp != qp) &&
 80035d0:	6899      	ldr	r1, [r3, #8]
 80035d2:	6882      	ldr	r2, [r0, #8]
 80035d4:	4291      	cmp	r1, r2
 80035d6:	d302      	bcc.n	80035de <myprintf+0x3fe>
    cp = cp->next;
 80035d8:	681b      	ldr	r3, [r3, #0]
  } while ((cp != qp) &&
 80035da:	429d      	cmp	r5, r3
 80035dc:	d1f8      	bne.n	80035d0 <myprintf+0x3f0>
  tp->prev       = cp->prev;
 80035de:	685a      	ldr	r2, [r3, #4]
 80035e0:	6042      	str	r2, [r0, #4]
  tp->next       = cp;
 80035e2:	6003      	str	r3, [r0, #0]
  tp->prev->next = tp;
 80035e4:	6010      	str	r0, [r2, #0]
  cp->prev       = tp;
 80035e6:	6058      	str	r0, [r3, #4]
          tp = tp->u.wtmtxp->owner;
 80035e8:	68a8      	ldr	r0, [r5, #8]
      while (tp->hdr.pqueue.prio < currtp->hdr.pqueue.prio) {
 80035ea:	68a3      	ldr	r3, [r4, #8]
 80035ec:	6882      	ldr	r2, [r0, #8]
 80035ee:	4293      	cmp	r3, r2
 80035f0:	f63f ae16 	bhi.w	8003220 <myprintf+0x40>
 80035f4:	e620      	b.n	8003238 <myprintf+0x58>
        l = va_arg(ap, int);
 80035f6:	4613      	mov	r3, r2
 80035f8:	f853 1b04 	ldr.w	r1, [r3], #4
 80035fc:	9303      	str	r3, [sp, #12]
      if (l < 0) {
 80035fe:	2900      	cmp	r1, #0
 8003600:	f2c0 80c7 	blt.w	8003792 <myprintf+0x5b2>
        if (do_sign) {
 8003604:	2d00      	cmp	r5, #0
 8003606:	f000 81a0 	beq.w	800394a <myprintf+0x76a>
          *p++ = '+';
 800360a:	232b      	movs	r3, #43	; 0x2b
 800360c:	f88d 3028 	strb.w	r3, [sp, #40]	; 0x28
 8003610:	ab0a      	add	r3, sp, #40	; 0x28
 8003612:	f10d 0529 	add.w	r5, sp, #41	; 0x29
 8003616:	9304      	str	r3, [sp, #16]
 8003618:	e0c3      	b.n	80037a2 <myprintf+0x5c2>
    switch (c) {
 800361a:	f04f 0c10 	mov.w	ip, #16
        l = va_arg(ap, unsigned int);
 800361e:	4613      	mov	r3, r2
  q = p + MAX_FILLER;
 8003620:	f10d 0e33 	add.w	lr, sp, #51	; 0x33
        l = va_arg(ap, unsigned int);
 8003624:	f853 1b04 	ldr.w	r1, [r3], #4
 8003628:	9303      	str	r3, [sp, #12]
  q = p + MAX_FILLER;
 800362a:	4672      	mov	r2, lr
 800362c:	e000      	b.n	8003630 <myprintf+0x450>
 800362e:	462a      	mov	r2, r5
    i = (int)(l % radix);
 8003630:	4608      	mov	r0, r1
 8003632:	fbb1 f1fc 	udiv	r1, r1, ip
 8003636:	fb0c 0511 	mls	r5, ip, r1, r0
    i += '0';
 800363a:	f105 0330 	add.w	r3, r5, #48	; 0x30
    if (i > '9') {
 800363e:	2b39      	cmp	r3, #57	; 0x39
      i += 'A' - '0' - 10;
 8003640:	bfc8      	it	gt
 8003642:	f105 0337 	addgt.w	r3, r5, #55	; 0x37
    *--q = i;
 8003646:	b2db      	uxtb	r3, r3
  } while ((ll /= radix) != 0);
 8003648:	4560      	cmp	r0, ip
    *--q = i;
 800364a:	f802 3c01 	strb.w	r3, [r2, #-1]
 800364e:	f102 35ff 	add.w	r5, r2, #4294967295
  } while ((ll /= radix) != 0);
 8003652:	d2ec      	bcs.n	800362e <myprintf+0x44e>
  i = (int)(p + MAX_FILLER - q);
 8003654:	a90a      	add	r1, sp, #40	; 0x28
 8003656:	ebae 0505 	sub.w	r5, lr, r5
 800365a:	9104      	str	r1, [sp, #16]
 800365c:	e001      	b.n	8003662 <myprintf+0x482>
    *p++ = *q++;
 800365e:	f812 3b01 	ldrb.w	r3, [r2], #1
 8003662:	f801 3b01 	strb.w	r3, [r1], #1
  while (--i);
 8003666:	4572      	cmp	r2, lr
 8003668:	d1f9      	bne.n	800365e <myprintf+0x47e>
        i--;
 800366a:	1e6b      	subs	r3, r5, #1
    if ((width -= i) < 0) {
 800366c:	1b64      	subs	r4, r4, r5
    s = tmpbuf;
 800366e:	9d04      	ldr	r5, [sp, #16]
        i--;
 8003670:	9301      	str	r3, [sp, #4]
    if (left_align == false) {
 8003672:	9b02      	ldr	r3, [sp, #8]
 8003674:	ea24 78e4 	bic.w	r8, r4, r4, asr #31
 8003678:	b91b      	cbnz	r3, 8003682 <myprintf+0x4a2>
    if (width < 0) {
 800367a:	2c00      	cmp	r4, #0
      width = -width;
 800367c:	f1c8 0800 	rsb	r8, r8, #0
    if (width < 0) {
 8003680:	dc5e      	bgt.n	8003740 <myprintf+0x560>
    while (--i >= 0) {
 8003682:	9b01      	ldr	r3, [sp, #4]
 8003684:	2b00      	cmp	r3, #0
 8003686:	f6bf af62 	bge.w	800354e <myprintf+0x36e>
 800368a:	e770      	b.n	800356e <myprintf+0x38e>
    switch (c) {
 800368c:	f04f 0c08 	mov.w	ip, #8
 8003690:	e7c5      	b.n	800361e <myprintf+0x43e>
 8003692:	f04f 0c0a 	mov.w	ip, #10
 8003696:	e7c2      	b.n	800361e <myprintf+0x43e>
      if ((s = va_arg(ap, char *)) == 0) {
 8003698:	4613      	mov	r3, r2
 800369a:	f853 5b04 	ldr.w	r5, [r3], #4
 800369e:	9303      	str	r3, [sp, #12]
 80036a0:	2d00      	cmp	r5, #0
 80036a2:	f000 8156 	beq.w	8003952 <myprintf+0x772>
      for (p = s; *p && (--precision >= 0); p++)
 80036a6:	782a      	ldrb	r2, [r5, #0]
      if (precision == 0) {
 80036a8:	f1b8 0f00 	cmp.w	r8, #0
 80036ac:	f040 813a 	bne.w	8003924 <myprintf+0x744>
      for (p = s; *p && (--precision >= 0); p++)
 80036b0:	2a00      	cmp	r2, #0
 80036b2:	f000 813c 	beq.w	800392e <myprintf+0x74e>
 80036b6:	f647 78fe 	movw	r8, #32766	; 0x7ffe
 80036ba:	462a      	mov	r2, r5
 80036bc:	e003      	b.n	80036c6 <myprintf+0x4e6>
 80036be:	1aab      	subs	r3, r5, r2
 80036c0:	eb13 0f08 	cmn.w	r3, r8
 80036c4:	d403      	bmi.n	80036ce <myprintf+0x4ee>
 80036c6:	f812 3f01 	ldrb.w	r3, [r2, #1]!
 80036ca:	2b00      	cmp	r3, #0
 80036cc:	d1f7      	bne.n	80036be <myprintf+0x4de>
    i = (int)(p - s);
 80036ce:	1b52      	subs	r2, r2, r5
        i--;
 80036d0:	1e53      	subs	r3, r2, #1
    if ((width -= i) < 0) {
 80036d2:	1aa4      	subs	r4, r4, r2
        i--;
 80036d4:	9301      	str	r3, [sp, #4]
      filler = ' ';
 80036d6:	2620      	movs	r6, #32
 80036d8:	e7cb      	b.n	8003672 <myprintf+0x492>
      f = (float) va_arg(ap, double);
 80036da:	3207      	adds	r2, #7
 80036dc:	f022 0307 	bic.w	r3, r2, #7
 80036e0:	e8f3 0102 	ldrd	r0, r1, [r3], #8
 80036e4:	9303      	str	r3, [sp, #12]
 80036e6:	f7fd f9d5 	bl	8000a94 <__aeabi_d2f>
 80036ea:	ee08 0a10 	vmov	s16, r0
      if (f < 0) {
 80036ee:	eeb5 8ac0 	vcmpe.f32	s16, #0.0
 80036f2:	eef1 fa10 	vmrs	APSR_nzcv, fpscr
 80036f6:	d479      	bmi.n	80037ec <myprintf+0x60c>
        if (do_sign) {
 80036f8:	2d00      	cmp	r5, #0
 80036fa:	f000 8122 	beq.w	8003942 <myprintf+0x762>
          *p++ = '+';
 80036fe:	232b      	movs	r3, #43	; 0x2b
 8003700:	e077      	b.n	80037f2 <myprintf+0x612>
      *p++ = va_arg(ap, int);
 8003702:	f852 3b04 	ldr.w	r3, [r2], #4
 8003706:	f88d 3028 	strb.w	r3, [sp, #40]	; 0x28
    if (left_align == false) {
 800370a:	9b02      	ldr	r3, [sp, #8]
      *p++ = va_arg(ap, int);
 800370c:	9203      	str	r2, [sp, #12]
 800370e:	3c01      	subs	r4, #1
      filler = ' ';
 8003710:	2620      	movs	r6, #32
    if ((width -= i) < 0) {
 8003712:	ea24 78e4 	bic.w	r8, r4, r4, asr #31
    if (left_align == false) {
 8003716:	2b00      	cmp	r3, #0
 8003718:	f43f af11 	beq.w	800353e <myprintf+0x35e>
 800371c:	2300      	movs	r3, #0
 800371e:	9301      	str	r3, [sp, #4]
 8003720:	e714      	b.n	800354c <myprintf+0x36c>
    chSysHalt("SV#5");
 8003722:	4806      	ldr	r0, [pc, #24]	; (800373c <myprintf+0x55c>)
 8003724:	f7fd fa54 	bl	8000bd0 <chSysHalt>
    mp->next = currtp->mtxlist;
 8003728:	6be3      	ldr	r3, [r4, #60]	; 0x3c
    mp->owner = currtp;
 800372a:	4a02      	ldr	r2, [pc, #8]	; (8003734 <myprintf+0x554>)
    currtp->mtxlist = mp;
 800372c:	63e2      	str	r2, [r4, #60]	; 0x3c
    mp->next = currtp->mtxlist;
 800372e:	e9c2 4302 	strd	r4, r3, [r2, #8]
 8003732:	e59f      	b.n	8003274 <myprintf+0x94>
 8003734:	20000d7c 	.word	0x20000d7c
 8003738:	08004c98 	.word	0x08004c98
 800373c:	08004cc0 	.word	0x08004cc0
      width = -width;
 8003740:	4644      	mov	r4, r8
      if ((*s == '-' || *s == '+') && filler == '0') {
 8003742:	7829      	ldrb	r1, [r5, #0]
 8003744:	292d      	cmp	r1, #45	; 0x2d
 8003746:	d011      	beq.n	800376c <myprintf+0x58c>
 8003748:	292b      	cmp	r1, #43	; 0x2b
 800374a:	d00f      	beq.n	800376c <myprintf+0x58c>
        streamPut(chp, (uint8_t)filler);
 800374c:	f8da 3000 	ldr.w	r3, [sl]
 8003750:	4631      	mov	r1, r6
 8003752:	68db      	ldr	r3, [r3, #12]
 8003754:	4650      	mov	r0, sl
 8003756:	4798      	blx	r3
      } while (++width != 0);
 8003758:	f118 0801 	adds.w	r8, r8, #1
 800375c:	d1f6      	bne.n	800374c <myprintf+0x56c>
    while (--i >= 0) {
 800375e:	9b01      	ldr	r3, [sp, #4]
 8003760:	2b00      	cmp	r3, #0
 8003762:	eba7 0704 	sub.w	r7, r7, r4
 8003766:	f6bf aef2 	bge.w	800354e <myprintf+0x36e>
 800376a:	e59c      	b.n	80032a6 <myprintf+0xc6>
      if ((*s == '-' || *s == '+') && filler == '0') {
 800376c:	2e30      	cmp	r6, #48	; 0x30
 800376e:	d1ed      	bne.n	800374c <myprintf+0x56c>
    while (--i >= 0) {
 8003770:	9b01      	ldr	r3, [sp, #4]
        streamPut(chp, (uint8_t)*s++);
 8003772:	f8da 2000 	ldr.w	r2, [sl]
 8003776:	4882      	ldr	r0, [pc, #520]	; (8003980 <myprintf+0x7a0>)
 8003778:	68d2      	ldr	r2, [r2, #12]
    while (--i >= 0) {
 800377a:	3b01      	subs	r3, #1
        streamPut(chp, (uint8_t)*s++);
 800377c:	3501      	adds	r5, #1
        n++;
 800377e:	3701      	adds	r7, #1
    while (--i >= 0) {
 8003780:	9301      	str	r3, [sp, #4]
        streamPut(chp, (uint8_t)*s++);
 8003782:	4790      	blx	r2
        i--;
 8003784:	e7e2      	b.n	800374c <myprintf+0x56c>
      chSchRescheduleS();
    }
    else {
      mp->owner = NULL;
 8003786:	4b7f      	ldr	r3, [pc, #508]	; (8003984 <myprintf+0x7a4>)
 8003788:	609a      	str	r2, [r3, #8]
void __dbg_check_unlock(void) {
 800378a:	e6be      	b.n	800350a <myprintf+0x32a>
      width = -width;
 800378c:	4644      	mov	r4, r8
    if (width < 0) {
 800378e:	ad0a      	add	r5, sp, #40	; 0x28
 8003790:	e7d7      	b.n	8003742 <myprintf+0x562>
        *p++ = '-';
 8003792:	232d      	movs	r3, #45	; 0x2d
 8003794:	f88d 3028 	strb.w	r3, [sp, #40]	; 0x28
        l = -l;
 8003798:	ab0a      	add	r3, sp, #40	; 0x28
 800379a:	4249      	negs	r1, r1
        *p++ = '-';
 800379c:	f10d 0529 	add.w	r5, sp, #41	; 0x29
 80037a0:	9304      	str	r3, [sp, #16]
  q = p + MAX_FILLER;
 80037a2:	f105 030b 	add.w	r3, r5, #11
    i = (int)(l % radix);
 80037a6:	f8df e1e4 	ldr.w	lr, [pc, #484]	; 800398c <myprintf+0x7ac>
  q = p + MAX_FILLER;
 80037aa:	4618      	mov	r0, r3
    i = (int)(l % radix);
 80037ac:	fbae c201 	umull	ip, r2, lr, r1
 80037b0:	08d2      	lsrs	r2, r2, #3
 80037b2:	eb02 0882 	add.w	r8, r2, r2, lsl #2
 80037b6:	4694      	mov	ip, r2
 80037b8:	eba1 0248 	sub.w	r2, r1, r8, lsl #1
    i += '0';
 80037bc:	3230      	adds	r2, #48	; 0x30
    i = (int)(l % radix);
 80037be:	4688      	mov	r8, r1
    *--q = i;
 80037c0:	b2d2      	uxtb	r2, r2
  } while ((ll /= radix) != 0);
 80037c2:	f1b8 0f09 	cmp.w	r8, #9
    *--q = i;
 80037c6:	f800 2d01 	strb.w	r2, [r0, #-1]!
    l /= radix;
 80037ca:	4661      	mov	r1, ip
  } while ((ll /= radix) != 0);
 80037cc:	dcee      	bgt.n	80037ac <myprintf+0x5cc>
  i = (int)(p + MAX_FILLER - q);
 80037ce:	1a1b      	subs	r3, r3, r0
 80037d0:	442b      	add	r3, r5
 80037d2:	e001      	b.n	80037d8 <myprintf+0x5f8>
    *p++ = *q++;
 80037d4:	f810 2f01 	ldrb.w	r2, [r0, #1]!
 80037d8:	f805 2b01 	strb.w	r2, [r5], #1
  while (--i);
 80037dc:	42ab      	cmp	r3, r5
 80037de:	d1f9      	bne.n	80037d4 <myprintf+0x5f4>
    i = (int)(p - s);
 80037e0:	9d04      	ldr	r5, [sp, #16]
 80037e2:	1b5b      	subs	r3, r3, r5
    if ((width -= i) < 0) {
 80037e4:	1ae4      	subs	r4, r4, r3
        i--;
 80037e6:	3b01      	subs	r3, #1
 80037e8:	9301      	str	r3, [sp, #4]
 80037ea:	e742      	b.n	8003672 <myprintf+0x492>
        f = -f;
 80037ec:	eeb1 8a48 	vneg.f32	s16, s16
        *p++ = '-';
 80037f0:	232d      	movs	r3, #45	; 0x2d
          *p++ = '+';
 80037f2:	f88d 3028 	strb.w	r3, [sp, #40]	; 0x28
 80037f6:	f10d 0329 	add.w	r3, sp, #41	; 0x29
 80037fa:	9301      	str	r3, [sp, #4]
 80037fc:	ab0a      	add	r3, sp, #40	; 0x28
 80037fe:	9304      	str	r3, [sp, #16]
      p = ftoa(p, f, precision);
 8003800:	ee18 0a10 	vmov	r0, s16
 8003804:	f7fd f8c6 	bl	8000994 <__aeabi_f2d>
  if ((precision == 0) || (precision > FLOAT_PRECISION)) {
 8003808:	f108 38ff 	add.w	r8, r8, #4294967295
 800380c:	f1b8 0f08 	cmp.w	r8, #8
      p = ftoa(p, f, precision);
 8003810:	ec41 0b19 	vmov	d9, r0, r1
  if ((precision == 0) || (precision > FLOAT_PRECISION)) {
 8003814:	d87c      	bhi.n	8003910 <myprintf+0x730>
  precision = pow10[precision - 1];
 8003816:	4b5c      	ldr	r3, [pc, #368]	; (8003988 <myprintf+0x7a8>)
  return long_to_string_with_divisor(p, l, 10, precision / 10);
 8003818:	4d5c      	ldr	r5, [pc, #368]	; (800398c <myprintf+0x7ac>)
  precision = pow10[precision - 1];
 800381a:	f853 3028 	ldr.w	r3, [r3, r8, lsl #2]
 800381e:	9307      	str	r3, [sp, #28]
  l = (long)((num - l) * precision);
 8003820:	4618      	mov	r0, r3
 8003822:	4698      	mov	r8, r3
 8003824:	f7fd f894 	bl	8000950 <__aeabi_ui2d>
  return long_to_string_with_divisor(p, l, 10, precision / 10);
 8003828:	4643      	mov	r3, r8
 800382a:	fba5 3503 	umull	r3, r5, r5, r3
  l = (long)((num - l) * precision);
 800382e:	ec41 0b1a 	vmov	d10, r0, r1
  return long_to_string_with_divisor(p, l, 10, precision / 10);
 8003832:	08ed      	lsrs	r5, r5, #3
  l = (long)num;
 8003834:	eefd 7ac8 	vcvt.s32.f32	s15, s16
  q = p + MAX_FILLER;
 8003838:	9b01      	ldr	r3, [sp, #4]
    i = (int)(l % radix);
 800383a:	f8df c150 	ldr.w	ip, [pc, #336]	; 800398c <myprintf+0x7ac>
  l = (long)num;
 800383e:	edcd 7a05 	vstr	s15, [sp, #20]
  q = p + MAX_FILLER;
 8003842:	f103 0e0b 	add.w	lr, r3, #11
  l = num;
 8003846:	ee17 1a90 	vmov	r1, s15
  q = p + MAX_FILLER;
 800384a:	4672      	mov	r2, lr
    i = (int)(l % radix);
 800384c:	fbac 0301 	umull	r0, r3, ip, r1
 8003850:	08db      	lsrs	r3, r3, #3
 8003852:	eb03 0883 	add.w	r8, r3, r3, lsl #2
 8003856:	4618      	mov	r0, r3
 8003858:	eba1 0348 	sub.w	r3, r1, r8, lsl #1
    i += '0';
 800385c:	3330      	adds	r3, #48	; 0x30
    i = (int)(l % radix);
 800385e:	4688      	mov	r8, r1
    *--q = i;
 8003860:	b2db      	uxtb	r3, r3
  } while ((ll /= radix) != 0);
 8003862:	f1b8 0f09 	cmp.w	r8, #9
    *--q = i;
 8003866:	f802 3d01 	strb.w	r3, [r2, #-1]!
    l /= radix;
 800386a:	4601      	mov	r1, r0
  } while ((ll /= radix) != 0);
 800386c:	d8ee      	bhi.n	800384c <myprintf+0x66c>
  i = (int)(p + MAX_FILLER - q);
 800386e:	9901      	ldr	r1, [sp, #4]
 8003870:	ebae 0e02 	sub.w	lr, lr, r2
 8003874:	eb01 000e 	add.w	r0, r1, lr
 8003878:	e001      	b.n	800387e <myprintf+0x69e>
    *p++ = *q++;
 800387a:	f812 3f01 	ldrb.w	r3, [r2, #1]!
 800387e:	f801 3b01 	strb.w	r3, [r1], #1
  while (--i);
 8003882:	4281      	cmp	r1, r0
 8003884:	d1f9      	bne.n	800387a <myprintf+0x69a>
 8003886:	9b01      	ldr	r3, [sp, #4]
  l = (long)((num - l) * precision);
 8003888:	9805      	ldr	r0, [sp, #20]
 800388a:	f10e 3eff 	add.w	lr, lr, #4294967295
  *p++ = '.';
 800388e:	4473      	add	r3, lr
 8003890:	460a      	mov	r2, r1
 8003892:	9306      	str	r3, [sp, #24]
 8003894:	232e      	movs	r3, #46	; 0x2e
 8003896:	f802 3b0c 	strb.w	r3, [r2], #12
 800389a:	9201      	str	r2, [sp, #4]
  l = (long)((num - l) * precision);
 800389c:	f7fd f868 	bl	8000970 <__aeabi_i2d>
 80038a0:	4602      	mov	r2, r0
 80038a2:	460b      	mov	r3, r1
 80038a4:	ec51 0b19 	vmov	r0, r1, d9
 80038a8:	f7fc ff14 	bl	80006d4 <__aeabi_dsub>
 80038ac:	ec53 2b1a 	vmov	r2, r3, d10
 80038b0:	f7fc fde2 	bl	8000478 <__aeabi_dmul>
 80038b4:	f7fd f8c6 	bl	8000a44 <__aeabi_d2iz>
    ll = num;
 80038b8:	9907      	ldr	r1, [sp, #28]
  *p++ = '.';
 80038ba:	9b06      	ldr	r3, [sp, #24]
    i = (int)(l % radix);
 80038bc:	f8df e0cc 	ldr.w	lr, [pc, #204]	; 800398c <myprintf+0x7ac>
    ll = num;
 80038c0:	2909      	cmp	r1, #9
 80038c2:	bf98      	it	ls
 80038c4:	4605      	movls	r5, r0
  q = p + MAX_FILLER;
 80038c6:	9901      	ldr	r1, [sp, #4]
  *p++ = '.';
 80038c8:	3302      	adds	r3, #2
    i = (int)(l % radix);
 80038ca:	fbae c200 	umull	ip, r2, lr, r0
 80038ce:	08d2      	lsrs	r2, r2, #3
 80038d0:	eb02 0882 	add.w	r8, r2, r2, lsl #2
 80038d4:	4694      	mov	ip, r2
 80038d6:	eba0 0248 	sub.w	r2, r0, r8, lsl #1
    i += '0';
 80038da:	3230      	adds	r2, #48	; 0x30
    l /= radix;
 80038dc:	4660      	mov	r0, ip
  } while ((ll /= radix) != 0);
 80038de:	46ac      	mov	ip, r5
    *--q = i;
 80038e0:	b2d2      	uxtb	r2, r2
  } while ((ll /= radix) != 0);
 80038e2:	fbae 8505 	umull	r8, r5, lr, r5
 80038e6:	f1bc 0f09 	cmp.w	ip, #9
    *--q = i;
 80038ea:	f801 2d01 	strb.w	r2, [r1, #-1]!
  } while ((ll /= radix) != 0);
 80038ee:	ea4f 05d5 	mov.w	r5, r5, lsr #3
 80038f2:	d8ea      	bhi.n	80038ca <myprintf+0x6ea>
  i = (int)(p + MAX_FILLER - q);
 80038f4:	9801      	ldr	r0, [sp, #4]
 80038f6:	9d06      	ldr	r5, [sp, #24]
 80038f8:	1a40      	subs	r0, r0, r1
 80038fa:	3002      	adds	r0, #2
 80038fc:	4405      	add	r5, r0
 80038fe:	4628      	mov	r0, r5
 8003900:	e001      	b.n	8003906 <myprintf+0x726>
    *p++ = *q++;
 8003902:	f811 2f01 	ldrb.w	r2, [r1, #1]!
 8003906:	f803 2b01 	strb.w	r2, [r3], #1
  while (--i);
 800390a:	4283      	cmp	r3, r0
 800390c:	d1f9      	bne.n	8003902 <myprintf+0x722>
 800390e:	e767      	b.n	80037e0 <myprintf+0x600>
 8003910:	ed9f 7b19 	vldr	d7, [pc, #100]	; 8003978 <myprintf+0x798>
 8003914:	4b1e      	ldr	r3, [pc, #120]	; (8003990 <myprintf+0x7b0>)
 8003916:	4d1f      	ldr	r5, [pc, #124]	; (8003994 <myprintf+0x7b4>)
 8003918:	9307      	str	r3, [sp, #28]
 800391a:	eeb0 aa47 	vmov.f32	s20, s14
 800391e:	eef0 aa67 	vmov.f32	s21, s15
 8003922:	e787      	b.n	8003834 <myprintf+0x654>
      for (p = s; *p && (--precision >= 0); p++)
 8003924:	b11a      	cbz	r2, 800392e <myprintf+0x74e>
 8003926:	f1b8 0801 	subs.w	r8, r8, #1
 800392a:	f57f aec6 	bpl.w	80036ba <myprintf+0x4da>
    if (left_align == false) {
 800392e:	9b02      	ldr	r3, [sp, #8]
 8003930:	ea24 78e4 	bic.w	r8, r4, r4, asr #31
 8003934:	b91b      	cbnz	r3, 800393e <myprintf+0x75e>
    if (width < 0) {
 8003936:	2c00      	cmp	r4, #0
      width = -width;
 8003938:	f1c8 0800 	rsb	r8, r8, #0
    if (width < 0) {
 800393c:	dc14      	bgt.n	8003968 <myprintf+0x788>
    if (left_align == false) {
 800393e:	2620      	movs	r6, #32
 8003940:	e615      	b.n	800356e <myprintf+0x38e>
    p = tmpbuf;
 8003942:	ab0a      	add	r3, sp, #40	; 0x28
 8003944:	9304      	str	r3, [sp, #16]
 8003946:	9301      	str	r3, [sp, #4]
 8003948:	e75a      	b.n	8003800 <myprintf+0x620>
 800394a:	ab0a      	add	r3, sp, #40	; 0x28
 800394c:	9304      	str	r3, [sp, #16]
 800394e:	461d      	mov	r5, r3
 8003950:	e727      	b.n	80037a2 <myprintf+0x5c2>
        s = "(null)";
 8003952:	4d11      	ldr	r5, [pc, #68]	; (8003998 <myprintf+0x7b8>)
      if (precision == 0) {
 8003954:	f1b8 0f00 	cmp.w	r8, #0
 8003958:	f43f aead 	beq.w	80036b6 <myprintf+0x4d6>
 800395c:	e7e3      	b.n	8003926 <myprintf+0x746>
    chSysHalt("SV#11");
 800395e:	480f      	ldr	r0, [pc, #60]	; (800399c <myprintf+0x7bc>)
 8003960:	f7fd f936 	bl	8000bd0 <chSysHalt>
  int n = 0;
 8003964:	460e      	mov	r6, r1
 8003966:	e588      	b.n	800347a <myprintf+0x29a>
    if (width < 0) {
 8003968:	f04f 33ff 	mov.w	r3, #4294967295
      width = -width;
 800396c:	4644      	mov	r4, r8
    if (width < 0) {
 800396e:	9301      	str	r3, [sp, #4]
 8003970:	2620      	movs	r6, #32
 8003972:	e6e6      	b.n	8003742 <myprintf+0x562>
 8003974:	f3af 8000 	nop.w
 8003978:	00000000 	.word	0x00000000
 800397c:	41cdcd65 	.word	0x41cdcd65
 8003980:	20000934 	.word	0x20000934
 8003984:	20000d7c 	.word	0x20000d7c
 8003988:	08004fc0 	.word	0x08004fc0
 800398c:	cccccccd 	.word	0xcccccccd
 8003990:	3b9aca00 	.word	0x3b9aca00
 8003994:	05f5e100 	.word	0x05f5e100
 8003998:	08004ce0 	.word	0x08004ce0
 800399c:	08004ca8 	.word	0x08004ca8

080039a0 <ThdSerial>:
 * @api
 */
static inline void chRegSetThreadName(const char *name) {

#if CH_CFG_USE_REGISTRY == TRUE
  __sch_get_currthread()->name = name;
 80039a0:	4b1e      	ldr	r3, [pc, #120]	; (8003a1c <ThdSerial+0x7c>)
 80039a2:	4a1f      	ldr	r2, [pc, #124]	; (8003a20 <ThdSerial+0x80>)
 80039a4:	68db      	ldr	r3, [r3, #12]
   115200,
   0,
   USART_CR2_STOP1_BITS,
   0
  };
  sdStart(&SD2, &my_config);
 80039a6:	491f      	ldr	r1, [pc, #124]	; (8003a24 <ThdSerial+0x84>)
 80039a8:	481f      	ldr	r0, [pc, #124]	; (8003a28 <ThdSerial+0x88>)
   // myprintf(bsp2, "%.3f %.3f %.3f\n\r", adc_get_temp_internal(), adc_get_temp_heater(), adc_get_current());



   // Getting data from Serial Driver with a timeout.
    msg_t tkn = sdGetTimeout(&SD2, TIME_MS2I(1000));
 80039aa:	4d20      	ldr	r5, [pc, #128]	; (8003a2c <ThdSerial+0x8c>)
 80039ac:	f8df 8094 	ldr.w	r8, [pc, #148]	; 8003a44 <ThdSerial+0xa4>
static THD_FUNCTION(ThdSerial, arg) {
 80039b0:	b580      	push	{r7, lr}
 80039b2:	61da      	str	r2, [r3, #28]
  sdStart(&SD2, &my_config);
 80039b4:	f7fe fa1c 	bl	8001df0 <sdStart.isra.0>
  myprintf("ThdSerial\n");
 80039b8:	481d      	ldr	r0, [pc, #116]	; (8003a30 <ThdSerial+0x90>)
        heater_disable();
      } else if(tkn == '1'){
        myprintf("Enable heater..\n");
        heater_setTempDegC(50.0);
      } else if(tkn == '2'){
        myprintf("Beep\n");
 80039ba:	4f1e      	ldr	r7, [pc, #120]	; (8003a34 <ThdSerial+0x94>)
  myprintf("ThdSerial\n");
 80039bc:	f7ff fc10 	bl	80031e0 <myprintf>
      sdPut(&SD2, tkn);
 80039c0:	f105 0624 	add.w	r6, r5, #36	; 0x24
    msg_t tkn = sdGetTimeout(&SD2, TIME_MS2I(1000));
 80039c4:	4628      	mov	r0, r5
 80039c6:	f242 7110 	movw	r1, #10000	; 0x2710
 80039ca:	f7fd fea1 	bl	8001710 <iqGetTimeout>
    if(tkn != MSG_TIMEOUT) {
 80039ce:	1c43      	adds	r3, r0, #1
    msg_t tkn = sdGetTimeout(&SD2, TIME_MS2I(1000));
 80039d0:	4604      	mov	r4, r0
    if(tkn != MSG_TIMEOUT) {
 80039d2:	d0f7      	beq.n	80039c4 <ThdSerial+0x24>
      sdPut(&SD2, tkn);
 80039d4:	b2c1      	uxtb	r1, r0
 80039d6:	f04f 32ff 	mov.w	r2, #4294967295
 80039da:	4630      	mov	r0, r6
 80039dc:	f7fd ff00 	bl	80017e0 <oqPutTimeout>
      if(tkn == '0'){
 80039e0:	2c30      	cmp	r4, #48	; 0x30
 80039e2:	d00a      	beq.n	80039fa <ThdSerial+0x5a>
      } else if(tkn == '1'){
 80039e4:	2c31      	cmp	r4, #49	; 0x31
 80039e6:	d010      	beq.n	8003a0a <ThdSerial+0x6a>
      } else if(tkn == '2'){
 80039e8:	2c32      	cmp	r4, #50	; 0x32
 80039ea:	d1eb      	bne.n	80039c4 <ThdSerial+0x24>
        myprintf("Beep\n");
 80039ec:	4638      	mov	r0, r7
 80039ee:	f7ff fbf7 	bl	80031e0 <myprintf>
        beep_ms = 10;
 80039f2:	230a      	movs	r3, #10
 80039f4:	f8c8 3000 	str.w	r3, [r8]
 80039f8:	e7e4      	b.n	80039c4 <ThdSerial+0x24>
        myprintf("  Disable heater\n");
 80039fa:	480f      	ldr	r0, [pc, #60]	; (8003a38 <ThdSerial+0x98>)
 80039fc:	f7ff fbf0 	bl	80031e0 <myprintf>
  //To ensure soft start and no current limit overshoot
  palSetPad(GPIOA, GPIOA_heater_enable);
}

void heater_disable(void){
  palClearPad(GPIOA, GPIOA_heater_enable);
 8003a00:	4b0e      	ldr	r3, [pc, #56]	; (8003a3c <ThdSerial+0x9c>)
 8003a02:	f44f 5280 	mov.w	r2, #4096	; 0x1000
 8003a06:	835a      	strh	r2, [r3, #26]
}
 8003a08:	e7dc      	b.n	80039c4 <ThdSerial+0x24>
        myprintf("Enable heater..\n");
 8003a0a:	480d      	ldr	r0, [pc, #52]	; (8003a40 <ThdSerial+0xa0>)
 8003a0c:	f7ff fbe8 	bl	80031e0 <myprintf>
void dacPutChannelX(DACDriver *dacp, dacchannel_t channel, dacsample_t sample) {

  osalDbgCheck(channel < (dacchannel_t)DAC_MAX_CHANNELS);
  osalDbgAssert(dacp->state == DAC_READY, "invalid state");

  dac_lld_put_channel(dacp, channel, sample);
 8003a10:	f640 302b 	movw	r0, #2859	; 0xb2b
 8003a14:	f7fd f97c 	bl	8000d10 <dac_lld_put_channel.constprop.0>
}
 8003a18:	e7d4      	b.n	80039c4 <ThdSerial+0x24>
 8003a1a:	bf00      	nop
 8003a1c:	200009f0 	.word	0x200009f0
 8003a20:	08004ce8 	.word	0x08004ce8
 8003a24:	08004fa8 	.word	0x08004fa8
 8003a28:	20000934 	.word	0x20000934
 8003a2c:	20000940 	.word	0x20000940
 8003a30:	08004cf8 	.word	0x08004cf8
 8003a34:	08004d2c 	.word	0x08004d2c
 8003a38:	08004d04 	.word	0x08004d04
 8003a3c:	40020000 	.word	0x40020000
 8003a40:	08004d18 	.word	0x08004d18
 8003a44:	20000800 	.word	0x20000800
	...

08003a50 <ThdBlinker>:

/*
 * Green LED blinker thread, times are in milliseconds.
 */
static THD_WORKING_AREA(waThdBlinker, 128);
static THD_FUNCTION(ThdBlinker, arg) {
 8003a50:	e92d 4880 	stmdb	sp!, {r7, fp, lr}
 8003a54:	4ca8      	ldr	r4, [pc, #672]	; (8003cf8 <ThdBlinker+0x2a8>)
 8003a56:	4aa9      	ldr	r2, [pc, #676]	; (8003cfc <ThdBlinker+0x2ac>)
 8003a58:	68e3      	ldr	r3, [r4, #12]
  (void)arg;
  chRegSetThreadName("blinker");
  chThdSleepMilliseconds(100);
  myprintf("ThdBlinker\n");

  for(float i=150; i>30; i=i*0.9){
 8003a5a:	4da9      	ldr	r5, [pc, #676]	; (8003d00 <ThdBlinker+0x2b0>)
 8003a5c:	61da      	str	r2, [r3, #28]
static THD_FUNCTION(ThdBlinker, arg) {
 8003a5e:	b083      	sub	sp, #12
  chThdSleepMilliseconds(100);
 8003a60:	f44f 707a 	mov.w	r0, #1000	; 0x3e8
 8003a64:	f7fd ffcc 	bl	8001a00 <chThdSleep>
  myprintf("ThdBlinker\n");
 8003a68:	48a6      	ldr	r0, [pc, #664]	; (8003d04 <ThdBlinker+0x2b4>)
    palSetPad(GPIOB, GPIOB_LED1);
 8003a6a:	f8df b2b0 	ldr.w	fp, [pc, #688]	; 8003d1c <ThdBlinker+0x2cc>
    palClearPad(GPIOC, GPIOC_LED2);
 8003a6e:	f8df a29c 	ldr.w	sl, [pc, #668]	; 8003d0c <ThdBlinker+0x2bc>
  myprintf("ThdBlinker\n");
 8003a72:	f7ff fbb5 	bl	80031e0 <myprintf>
    palSetPad(GPIOB, GPIOB_LED1);
 8003a76:	f44f 4880 	mov.w	r8, #16384	; 0x4000
  myprintf("ThdBlinker\n");
 8003a7a:	2310      	movs	r3, #16
 8003a7c:	9301      	str	r3, [sp, #4]
    palSetPad(GPIOB, GPIOB_LED1);
 8003a7e:	4647      	mov	r7, r8
    chThdSleepMilliseconds(i);
 8003a80:	f240 36e7 	movw	r6, #999	; 0x3e7
    palSetPad(GPIOB, GPIOB_LED1);
 8003a84:	f8ab 7018 	strh.w	r7, [fp, #24]
    chThdSleepMilliseconds(i);
 8003a88:	4628      	mov	r0, r5
    palClearPad(GPIOC, GPIOC_LED2);
 8003a8a:	f8aa 701a 	strh.w	r7, [sl, #26]
    chThdSleepMilliseconds(i);
 8003a8e:	f000 ff77 	bl	8004980 <__aeabi_f2ulz>
 8003a92:	0082      	lsls	r2, r0, #2
 8003a94:	ea4f 0c81 	mov.w	ip, r1, lsl #2
 8003a98:	1813      	adds	r3, r2, r0
 8003a9a:	ea4c 7c90 	orr.w	ip, ip, r0, lsr #30
 8003a9e:	eb41 020c 	adc.w	r2, r1, ip
 8003aa2:	00d2      	lsls	r2, r2, #3
 8003aa4:	ea42 7253 	orr.w	r2, r2, r3, lsr #29
 8003aa8:	00db      	lsls	r3, r3, #3
 8003aaa:	1a1b      	subs	r3, r3, r0
 8003aac:	eb62 0201 	sbc.w	r2, r2, r1
 8003ab0:	0112      	lsls	r2, r2, #4
 8003ab2:	ea42 7213 	orr.w	r2, r2, r3, lsr #28
 8003ab6:	011b      	lsls	r3, r3, #4
 8003ab8:	1818      	adds	r0, r3, r0
 8003aba:	eb41 0102 	adc.w	r1, r1, r2
 8003abe:	0103      	lsls	r3, r0, #4
 8003ac0:	0109      	lsls	r1, r1, #4
 8003ac2:	ea41 7110 	orr.w	r1, r1, r0, lsr #28
 8003ac6:	1998      	adds	r0, r3, r6
 8003ac8:	f141 0100 	adc.w	r1, r1, #0
 8003acc:	f44f 727a 	mov.w	r2, #1000	; 0x3e8
 8003ad0:	2300      	movs	r3, #0
 8003ad2:	f7fd f82f 	bl	8000b34 <__aeabi_uldivmod>
 8003ad6:	f04f 0930 	mov.w	r9, #48	; 0x30
 8003ada:	4601      	mov	r1, r0
 8003adc:	f389 8811 	msr	BASEPRI, r9
  if (unlikely((oip->dbg.isr_cnt != (cnt_t)0) ||
 8003ae0:	e9d4 3222 	ldrd	r3, r2, [r4, #136]	; 0x88
 8003ae4:	4313      	orrs	r3, r2
 8003ae6:	f040 80f6 	bne.w	8003cd6 <ThdBlinker+0x286>
  oip->dbg.lock_cnt = (cnt_t)1;
 8003aea:	2301      	movs	r3, #1
 8003aec:	f8c4 308c 	str.w	r3, [r4, #140]	; 0x8c
  chDbgCheck(ticks != TIME_IMMEDIATE);
 8003af0:	2800      	cmp	r0, #0
 8003af2:	f000 80f3 	beq.w	8003cdc <ThdBlinker+0x28c>
  (void) chSchGoSleepTimeoutS(CH_STATE_SLEEPING, ticks);
 8003af6:	9000      	str	r0, [sp, #0]
 8003af8:	2008      	movs	r0, #8
 8003afa:	f7fd fcb9 	bl	8001470 <chSchGoSleepTimeoutS>
  if (unlikely((oip->dbg.isr_cnt != (cnt_t)0) ||
 8003afe:	f8d4 2088 	ldr.w	r2, [r4, #136]	; 0x88
 8003b02:	9900      	ldr	r1, [sp, #0]
 8003b04:	2301      	movs	r3, #1
 8003b06:	2a00      	cmp	r2, #0
 8003b08:	f040 80e2 	bne.w	8003cd0 <ThdBlinker+0x280>
 8003b0c:	f8d4 008c 	ldr.w	r0, [r4, #140]	; 0x8c
 8003b10:	2800      	cmp	r0, #0
 8003b12:	f340 80dd 	ble.w	8003cd0 <ThdBlinker+0x280>
  oip->dbg.lock_cnt = (cnt_t)0;
 8003b16:	f8c4 208c 	str.w	r2, [r4, #140]	; 0x8c
 8003b1a:	f382 8811 	msr	BASEPRI, r2
    palClearPad(GPIOB, GPIOB_LED1);
 8003b1e:	f8ab 801a 	strh.w	r8, [fp, #26]
    palSetPad(GPIOC, GPIOC_LED2);
 8003b22:	f8aa 8018 	strh.w	r8, [sl, #24]
 8003b26:	f389 8811 	msr	BASEPRI, r9
  if (unlikely((oip->dbg.isr_cnt != (cnt_t)0) ||
 8003b2a:	e9d4 2022 	ldrd	r2, r0, [r4, #136]	; 0x88
 8003b2e:	4302      	orrs	r2, r0
 8003b30:	f040 80d1 	bne.w	8003cd6 <ThdBlinker+0x286>
 8003b34:	2008      	movs	r0, #8
  oip->dbg.lock_cnt = (cnt_t)1;
 8003b36:	f8c4 308c 	str.w	r3, [r4, #140]	; 0x8c
 8003b3a:	f7fd fc99 	bl	8001470 <chSchGoSleepTimeoutS>
  if (unlikely((oip->dbg.isr_cnt != (cnt_t)0) ||
 8003b3e:	f8d4 3088 	ldr.w	r3, [r4, #136]	; 0x88
 8003b42:	2b00      	cmp	r3, #0
 8003b44:	f040 80c4 	bne.w	8003cd0 <ThdBlinker+0x280>
 8003b48:	f8d4 208c 	ldr.w	r2, [r4, #140]	; 0x8c
 8003b4c:	2a00      	cmp	r2, #0
 8003b4e:	f340 80bf 	ble.w	8003cd0 <ThdBlinker+0x280>
  oip->dbg.lock_cnt = (cnt_t)0;
 8003b52:	f8c4 308c 	str.w	r3, [r4, #140]	; 0x8c
 8003b56:	f383 8811 	msr	BASEPRI, r3
  for(float i=150; i>30; i=i*0.9){
 8003b5a:	4628      	mov	r0, r5
 8003b5c:	f7fc ff1a 	bl	8000994 <__aeabi_f2d>
 8003b60:	a361      	add	r3, pc, #388	; (adr r3, 8003ce8 <ThdBlinker+0x298>)
 8003b62:	e9d3 2300 	ldrd	r2, r3, [r3]
 8003b66:	f7fc fc87 	bl	8000478 <__aeabi_dmul>
 8003b6a:	f7fc ff93 	bl	8000a94 <__aeabi_d2f>
 8003b6e:	9b01      	ldr	r3, [sp, #4]
 8003b70:	3b01      	subs	r3, #1
 8003b72:	4605      	mov	r5, r0
 8003b74:	9301      	str	r3, [sp, #4]
 8003b76:	d185      	bne.n	8003a84 <ThdBlinker+0x34>
    chThdSleepMilliseconds(i);
  }
  for(float i=30; i<150; i=i*1.1){
    palSetPad(GPIOB, GPIOB_LED1);
 8003b78:	f44f 4980 	mov.w	r9, #16384	; 0x4000
 8003b7c:	2311      	movs	r3, #17
 8003b7e:	f8df a19c 	ldr.w	sl, [pc, #412]	; 8003d1c <ThdBlinker+0x2cc>
    palClearPad(GPIOC, GPIOC_LED2);
 8003b82:	f8df b188 	ldr.w	fp, [pc, #392]	; 8003d0c <ThdBlinker+0x2bc>
  for(float i=30; i<150; i=i*1.1){
 8003b86:	4e60      	ldr	r6, [pc, #384]	; (8003d08 <ThdBlinker+0x2b8>)
 8003b88:	9300      	str	r3, [sp, #0]
    palSetPad(GPIOB, GPIOB_LED1);
 8003b8a:	46c8      	mov	r8, r9
    chThdSleepMilliseconds(i);
 8003b8c:	f242 7510 	movw	r5, #10000	; 0x2710
    palSetPad(GPIOB, GPIOB_LED1);
 8003b90:	f8aa 8018 	strh.w	r8, [sl, #24]
    chThdSleepMilliseconds(i);
 8003b94:	4630      	mov	r0, r6
    palClearPad(GPIOC, GPIOC_LED2);
 8003b96:	f8ab 801a 	strh.w	r8, [fp, #26]
    chThdSleepMilliseconds(i);
 8003b9a:	f000 fef1 	bl	8004980 <__aeabi_f2ulz>
 8003b9e:	fba0 0305 	umull	r0, r3, r0, r5
 8003ba2:	fb05 3101 	mla	r1, r5, r1, r3
 8003ba6:	f240 33e7 	movw	r3, #999	; 0x3e7
 8003baa:	18c0      	adds	r0, r0, r3
 8003bac:	f141 0100 	adc.w	r1, r1, #0
 8003bb0:	f44f 727a 	mov.w	r2, #1000	; 0x3e8
 8003bb4:	2300      	movs	r3, #0
 8003bb6:	f7fc ffbd 	bl	8000b34 <__aeabi_uldivmod>
 8003bba:	2730      	movs	r7, #48	; 0x30
 8003bbc:	4601      	mov	r1, r0
 8003bbe:	f387 8811 	msr	BASEPRI, r7
  if (unlikely((oip->dbg.isr_cnt != (cnt_t)0) ||
 8003bc2:	e9d4 3222 	ldrd	r3, r2, [r4, #136]	; 0x88
 8003bc6:	4313      	orrs	r3, r2
 8003bc8:	f040 8085 	bne.w	8003cd6 <ThdBlinker+0x286>
  oip->dbg.lock_cnt = (cnt_t)1;
 8003bcc:	2301      	movs	r3, #1
 8003bce:	f8c4 308c 	str.w	r3, [r4, #140]	; 0x8c
  chDbgCheck(ticks != TIME_IMMEDIATE);
 8003bd2:	2800      	cmp	r0, #0
 8003bd4:	f000 8082 	beq.w	8003cdc <ThdBlinker+0x28c>
  (void) chSchGoSleepTimeoutS(CH_STATE_SLEEPING, ticks);
 8003bd8:	9001      	str	r0, [sp, #4]
 8003bda:	2008      	movs	r0, #8
 8003bdc:	f7fd fc48 	bl	8001470 <chSchGoSleepTimeoutS>
  if (unlikely((oip->dbg.isr_cnt != (cnt_t)0) ||
 8003be0:	f8d4 3088 	ldr.w	r3, [r4, #136]	; 0x88
 8003be4:	2b00      	cmp	r3, #0
 8003be6:	d173      	bne.n	8003cd0 <ThdBlinker+0x280>
 8003be8:	f8d4 208c 	ldr.w	r2, [r4, #140]	; 0x8c
 8003bec:	2a00      	cmp	r2, #0
 8003bee:	dd6f      	ble.n	8003cd0 <ThdBlinker+0x280>
  oip->dbg.lock_cnt = (cnt_t)0;
 8003bf0:	f8c4 308c 	str.w	r3, [r4, #140]	; 0x8c
 8003bf4:	f383 8811 	msr	BASEPRI, r3
    palClearPad(GPIOB, GPIOB_LED1);
 8003bf8:	f8aa 901a 	strh.w	r9, [sl, #26]
    palSetPad(GPIOC, GPIOC_LED2);
 8003bfc:	f8ab 9018 	strh.w	r9, [fp, #24]
 8003c00:	f387 8811 	msr	BASEPRI, r7
  if (unlikely((oip->dbg.isr_cnt != (cnt_t)0) ||
 8003c04:	e9d4 3222 	ldrd	r3, r2, [r4, #136]	; 0x88
 8003c08:	4313      	orrs	r3, r2
 8003c0a:	d164      	bne.n	8003cd6 <ThdBlinker+0x286>
  oip->dbg.lock_cnt = (cnt_t)1;
 8003c0c:	2301      	movs	r3, #1
 8003c0e:	9901      	ldr	r1, [sp, #4]
 8003c10:	f8c4 308c 	str.w	r3, [r4, #140]	; 0x8c
 8003c14:	2008      	movs	r0, #8
 8003c16:	f7fd fc2b 	bl	8001470 <chSchGoSleepTimeoutS>
  if (unlikely((oip->dbg.isr_cnt != (cnt_t)0) ||
 8003c1a:	f8d4 3088 	ldr.w	r3, [r4, #136]	; 0x88
 8003c1e:	2b00      	cmp	r3, #0
 8003c20:	d156      	bne.n	8003cd0 <ThdBlinker+0x280>
 8003c22:	f8d4 208c 	ldr.w	r2, [r4, #140]	; 0x8c
 8003c26:	2a00      	cmp	r2, #0
 8003c28:	dd52      	ble.n	8003cd0 <ThdBlinker+0x280>
  oip->dbg.lock_cnt = (cnt_t)0;
 8003c2a:	f8c4 308c 	str.w	r3, [r4, #140]	; 0x8c
 8003c2e:	f383 8811 	msr	BASEPRI, r3
  for(float i=30; i<150; i=i*1.1){
 8003c32:	4630      	mov	r0, r6
 8003c34:	f7fc feae 	bl	8000994 <__aeabi_f2d>
 8003c38:	a32d      	add	r3, pc, #180	; (adr r3, 8003cf0 <ThdBlinker+0x2a0>)
 8003c3a:	e9d3 2300 	ldrd	r2, r3, [r3]
 8003c3e:	f7fc fc1b 	bl	8000478 <__aeabi_dmul>
 8003c42:	f7fc ff27 	bl	8000a94 <__aeabi_d2f>
 8003c46:	9b00      	ldr	r3, [sp, #0]
 8003c48:	3b01      	subs	r3, #1
 8003c4a:	4606      	mov	r6, r0
 8003c4c:	9300      	str	r3, [sp, #0]
 8003c4e:	d19f      	bne.n	8003b90 <ThdBlinker+0x140>
    chThdSleepMilliseconds(i);
  }

  while (true) {
    palSetPad(GPIOB, GPIOB_LED1);
 8003c50:	f44f 4580 	mov.w	r5, #16384	; 0x4000
 8003c54:	f8df 80c4 	ldr.w	r8, [pc, #196]	; 8003d1c <ThdBlinker+0x2cc>
    palClearPad(GPIOC, GPIOC_LED2);
 8003c58:	4e2c      	ldr	r6, [pc, #176]	; (8003d0c <ThdBlinker+0x2bc>)
    palSetPad(GPIOB, GPIOB_LED1);
 8003c5a:	46a9      	mov	r9, r5
 8003c5c:	f8a8 9018 	strh.w	r9, [r8, #24]
    palClearPad(GPIOC, GPIOC_LED2);
 8003c60:	f8a6 901a 	strh.w	r9, [r6, #26]
 8003c64:	f387 8811 	msr	BASEPRI, r7
  if (unlikely((oip->dbg.isr_cnt != (cnt_t)0) ||
 8003c68:	e9d4 3222 	ldrd	r3, r2, [r4, #136]	; 0x88
 8003c6c:	4313      	orrs	r3, r2
 8003c6e:	d132      	bne.n	8003cd6 <ThdBlinker+0x286>
  oip->dbg.lock_cnt = (cnt_t)1;
 8003c70:	2301      	movs	r3, #1
 8003c72:	f242 7110 	movw	r1, #10000	; 0x2710
 8003c76:	2008      	movs	r0, #8
 8003c78:	f8c4 308c 	str.w	r3, [r4, #140]	; 0x8c
 8003c7c:	f7fd fbf8 	bl	8001470 <chSchGoSleepTimeoutS>
  if (unlikely((oip->dbg.isr_cnt != (cnt_t)0) ||
 8003c80:	f8d4 3088 	ldr.w	r3, [r4, #136]	; 0x88
 8003c84:	bb23      	cbnz	r3, 8003cd0 <ThdBlinker+0x280>
 8003c86:	f8d4 208c 	ldr.w	r2, [r4, #140]	; 0x8c
 8003c8a:	2a00      	cmp	r2, #0
 8003c8c:	dd20      	ble.n	8003cd0 <ThdBlinker+0x280>
  oip->dbg.lock_cnt = (cnt_t)0;
 8003c8e:	f8c4 308c 	str.w	r3, [r4, #140]	; 0x8c
 8003c92:	f383 8811 	msr	BASEPRI, r3
    chThdSleepMilliseconds(1000);
    palClearPad(GPIOB, GPIOC_LED2);
 8003c96:	f8a8 501a 	strh.w	r5, [r8, #26]
    palSetPad(GPIOC, GPIOB_LED1);
 8003c9a:	8335      	strh	r5, [r6, #24]
 8003c9c:	f387 8811 	msr	BASEPRI, r7
  if (unlikely((oip->dbg.isr_cnt != (cnt_t)0) ||
 8003ca0:	e9d4 3222 	ldrd	r3, r2, [r4, #136]	; 0x88
 8003ca4:	4313      	orrs	r3, r2
 8003ca6:	d116      	bne.n	8003cd6 <ThdBlinker+0x286>
  oip->dbg.lock_cnt = (cnt_t)1;
 8003ca8:	2301      	movs	r3, #1
 8003caa:	f242 7110 	movw	r1, #10000	; 0x2710
 8003cae:	2008      	movs	r0, #8
 8003cb0:	f8c4 308c 	str.w	r3, [r4, #140]	; 0x8c
 8003cb4:	f7fd fbdc 	bl	8001470 <chSchGoSleepTimeoutS>
  if (unlikely((oip->dbg.isr_cnt != (cnt_t)0) ||
 8003cb8:	f8d4 3088 	ldr.w	r3, [r4, #136]	; 0x88
 8003cbc:	b943      	cbnz	r3, 8003cd0 <ThdBlinker+0x280>
 8003cbe:	f8d4 208c 	ldr.w	r2, [r4, #140]	; 0x8c
 8003cc2:	2a00      	cmp	r2, #0
 8003cc4:	dd04      	ble.n	8003cd0 <ThdBlinker+0x280>
  oip->dbg.lock_cnt = (cnt_t)0;
 8003cc6:	f8c4 308c 	str.w	r3, [r4, #140]	; 0x8c
 8003cca:	f383 8811 	msr	BASEPRI, r3
}
 8003cce:	e7c5      	b.n	8003c5c <ThdBlinker+0x20c>
    chSysHalt("SV#5");
 8003cd0:	480f      	ldr	r0, [pc, #60]	; (8003d10 <ThdBlinker+0x2c0>)
 8003cd2:	f7fc ff7d 	bl	8000bd0 <chSysHalt>
    chSysHalt("SV#4");
 8003cd6:	480f      	ldr	r0, [pc, #60]	; (8003d14 <ThdBlinker+0x2c4>)
 8003cd8:	f7fc ff7a 	bl	8000bd0 <chSysHalt>
  chDbgCheck(ticks != TIME_IMMEDIATE);
 8003cdc:	480e      	ldr	r0, [pc, #56]	; (8003d18 <ThdBlinker+0x2c8>)
 8003cde:	f7fc ff77 	bl	8000bd0 <chSysHalt>
 8003ce2:	bf00      	nop
 8003ce4:	f3af 8000 	nop.w
 8003ce8:	cccccccd 	.word	0xcccccccd
 8003cec:	3feccccc 	.word	0x3feccccc
 8003cf0:	9999999a 	.word	0x9999999a
 8003cf4:	3ff19999 	.word	0x3ff19999
 8003cf8:	200009f0 	.word	0x200009f0
 8003cfc:	08004d34 	.word	0x08004d34
 8003d00:	43160000 	.word	0x43160000
 8003d04:	08004d3c 	.word	0x08004d3c
 8003d08:	41f00000 	.word	0x41f00000
 8003d0c:	40020800 	.word	0x40020800
 8003d10:	08004cc0 	.word	0x08004cc0
 8003d14:	08004c98 	.word	0x08004c98
 8003d18:	08004e18 	.word	0x08004e18
 8003d1c:	40020400 	.word	0x40020400

08003d20 <ThdGNSS>:

/*
 * GNSS (UART1) receive and forward
 */
static THD_WORKING_AREA(waThdGNSS, 128);
static THD_FUNCTION(ThdGNSS, arg) {
 8003d20:	b508      	push	{r3, lr}
 8003d22:	4b09      	ldr	r3, [pc, #36]	; (8003d48 <ThdGNSS+0x28>)
 8003d24:	4a09      	ldr	r2, [pc, #36]	; (8003d4c <ThdGNSS+0x2c>)
 8003d26:	68db      	ldr	r3, [r3, #12]
  (void)arg;
  chRegSetThreadName("GNSS");
  myprintf("ThdGNSS\n");
 8003d28:	4809      	ldr	r0, [pc, #36]	; (8003d50 <ThdGNSS+0x30>)
 8003d2a:	61da      	str	r2, [r3, #28]
 8003d2c:	f7ff fa58 	bl	80031e0 <myprintf>
   9600,
   0,
   USART_CR2_STOP1_BITS,
   0
  };
  sdStart(&SD1, &my_config);
 8003d30:	4908      	ldr	r1, [pc, #32]	; (8003d54 <ThdGNSS+0x34>)
 8003d32:	4809      	ldr	r0, [pc, #36]	; (8003d58 <ThdGNSS+0x38>)


  while(true){
    /* Getting data from Serial Driver with a timeout. */
    msg_t tkn = sdGetTimeout(&SD1, TIME_MS2I(100));
 8003d34:	4c09      	ldr	r4, [pc, #36]	; (8003d5c <ThdGNSS+0x3c>)
  sdStart(&SD1, &my_config);
 8003d36:	f7fe f85b 	bl	8001df0 <sdStart.isra.0>
    msg_t tkn = sdGetTimeout(&SD1, TIME_MS2I(100));
 8003d3a:	f44f 717a 	mov.w	r1, #1000	; 0x3e8
 8003d3e:	4620      	mov	r0, r4
 8003d40:	f7fd fce6 	bl	8001710 <iqGetTimeout>
  while(true){
 8003d44:	e7f9      	b.n	8003d3a <ThdGNSS+0x1a>
 8003d46:	bf00      	nop
 8003d48:	200009f0 	.word	0x200009f0
 8003d4c:	08004d48 	.word	0x08004d48
 8003d50:	08004d50 	.word	0x08004d50
 8003d54:	08004fb4 	.word	0x08004fb4
 8003d58:	200008b4 	.word	0x200008b4
 8003d5c:	200008c0 	.word	0x200008c0

08003d60 <ThdBeeper>:
/*
 * Piezo beeper
 */

static THD_WORKING_AREA(waThdBeeper, 128);
static THD_FUNCTION(ThdBeeper, arg) {
 8003d60:	b580      	push	{r7, lr}
  (void)arg;
  myprintf("ThdBeeper\n");
 8003d62:	483b      	ldr	r0, [pc, #236]	; (8003e50 <ThdBeeper+0xf0>)
 8003d64:	f8df 9100 	ldr.w	r9, [pc, #256]	; 8003e68 <ThdBeeper+0x108>
 8003d68:	f8df 8100 	ldr.w	r8, [pc, #256]	; 8003e6c <ThdBeeper+0x10c>

void piezo_toggle(void){
  palTogglePad(GPIOC, GPIOC_PIEZO_A);
 8003d6c:	4d39      	ldr	r5, [pc, #228]	; (8003e54 <ThdBeeper+0xf4>)
 8003d6e:	f7ff fa37 	bl	80031e0 <myprintf>

  while(true){

    if(beep_ms){
 8003d72:	f8d9 3000 	ldr.w	r3, [r9]
 8003d76:	2b00      	cmp	r3, #0
 8003d78:	d046      	beq.n	8003e08 <ThdBeeper+0xa8>
      systime_t start = chVTGetSystemTimeX();
      systime_t end = chTimeAddX(start, TIME_MS2I(beep_ms));
 8003d7a:	f242 7210 	movw	r2, #10000	; 0x2710
 8003d7e:	f240 30e7 	movw	r0, #999	; 0x3e7
 8003d82:	2100      	movs	r1, #0
 8003d84:	fbe3 0102 	umlal	r0, r1, r3, r2
 8003d88:	f44f 727a 	mov.w	r2, #1000	; 0x3e8
 8003d8c:	2300      	movs	r3, #0
 8003d8e:	f7fc fed1 	bl	8000b34 <__aeabi_uldivmod>
 8003d92:	f8d8 7024 	ldr.w	r7, [r8, #36]	; 0x24
  chDbgCheck(interval <= (sysinterval_t)TIME_MAX_SYSTIME);
 8003d96:	f5b0 3f80 	cmp.w	r0, #65536	; 0x10000
 8003d9a:	b2bf      	uxth	r7, r7
 8003d9c:	d255      	bcs.n	8003e4a <ThdBeeper+0xea>
 8003d9e:	f8d8 3024 	ldr.w	r3, [r8, #36]	; 0x24
 8003da2:	4c2d      	ldr	r4, [pc, #180]	; (8003e58 <ThdBeeper+0xf8>)
 */
static inline bool chTimeIsInRangeX(systime_t time,
                                    systime_t start,
                                    systime_t end) {

  return (bool)((systime_t)((systime_t)time - (systime_t)start) <
 8003da4:	1bdb      	subs	r3, r3, r7
  return systime + (systime_t)interval;
 8003da6:	b286      	uxth	r6, r0
      while (chTimeIsInRangeX(chVTGetSystemTimeX(), start, end)) {
 8003da8:	b29b      	uxth	r3, r3
 8003daa:	42b3      	cmp	r3, r6
 8003dac:	bf38      	it	cc
 8003dae:	f04f 0a30 	movcc.w	sl, #48	; 0x30
 8003db2:	d225      	bcs.n	8003e00 <ThdBeeper+0xa0>
 8003db4:	696b      	ldr	r3, [r5, #20]
 8003db6:	f483 6380 	eor.w	r3, r3, #1024	; 0x400
 8003dba:	616b      	str	r3, [r5, #20]
  palTogglePad(GPIOC, GPIOC_PIEZO_B);
 8003dbc:	696b      	ldr	r3, [r5, #20]
 8003dbe:	f483 6300 	eor.w	r3, r3, #2048	; 0x800
 8003dc2:	616b      	str	r3, [r5, #20]
 8003dc4:	f38a 8811 	msr	BASEPRI, sl
  if (unlikely((oip->dbg.isr_cnt != (cnt_t)0) ||
 8003dc8:	e9d4 3222 	ldrd	r3, r2, [r4, #136]	; 0x88
 8003dcc:	4313      	orrs	r3, r2
 8003dce:	d136      	bne.n	8003e3e <ThdBeeper+0xde>
  oip->dbg.lock_cnt = (cnt_t)1;
 8003dd0:	2301      	movs	r3, #1
  (void) chSchGoSleepTimeoutS(CH_STATE_SLEEPING, ticks);
 8003dd2:	210a      	movs	r1, #10
 8003dd4:	2008      	movs	r0, #8
 8003dd6:	f8c4 308c 	str.w	r3, [r4, #140]	; 0x8c
 8003dda:	f7fd fb49 	bl	8001470 <chSchGoSleepTimeoutS>
  if (unlikely((oip->dbg.isr_cnt != (cnt_t)0) ||
 8003dde:	f8d4 3088 	ldr.w	r3, [r4, #136]	; 0x88
 8003de2:	bb7b      	cbnz	r3, 8003e44 <ThdBeeper+0xe4>
 8003de4:	f8d4 208c 	ldr.w	r2, [r4, #140]	; 0x8c
 8003de8:	2a00      	cmp	r2, #0
 8003dea:	dd2b      	ble.n	8003e44 <ThdBeeper+0xe4>
  oip->dbg.lock_cnt = (cnt_t)0;
 8003dec:	f8c4 308c 	str.w	r3, [r4, #140]	; 0x8c
 8003df0:	f383 8811 	msr	BASEPRI, r3
 8003df4:	f8d8 3024 	ldr.w	r3, [r8, #36]	; 0x24
  return (bool)((systime_t)((systime_t)time - (systime_t)start) <
 8003df8:	1bdb      	subs	r3, r3, r7
 8003dfa:	b29b      	uxth	r3, r3
 8003dfc:	429e      	cmp	r6, r3
 8003dfe:	d8d9      	bhi.n	8003db4 <ThdBeeper+0x54>
        piezo_toggle();
        chThdSleepMilliseconds(1);
      }
      beep_ms = 0;
 8003e00:	2300      	movs	r3, #0
 8003e02:	f8c9 3000 	str.w	r3, [r9]
 8003e06:	e000      	b.n	8003e0a <ThdBeeper+0xaa>
 8003e08:	4c13      	ldr	r4, [pc, #76]	; (8003e58 <ThdBeeper+0xf8>)
 8003e0a:	2330      	movs	r3, #48	; 0x30
 8003e0c:	f383 8811 	msr	BASEPRI, r3
  if (unlikely((oip->dbg.isr_cnt != (cnt_t)0) ||
 8003e10:	e9d4 3222 	ldrd	r3, r2, [r4, #136]	; 0x88
 8003e14:	4313      	orrs	r3, r2
 8003e16:	d112      	bne.n	8003e3e <ThdBeeper+0xde>
  oip->dbg.lock_cnt = (cnt_t)1;
 8003e18:	2301      	movs	r3, #1
 8003e1a:	2164      	movs	r1, #100	; 0x64
 8003e1c:	2008      	movs	r0, #8
 8003e1e:	f8c4 308c 	str.w	r3, [r4, #140]	; 0x8c
 8003e22:	f7fd fb25 	bl	8001470 <chSchGoSleepTimeoutS>
  if (unlikely((oip->dbg.isr_cnt != (cnt_t)0) ||
 8003e26:	f8d4 3088 	ldr.w	r3, [r4, #136]	; 0x88
 8003e2a:	b95b      	cbnz	r3, 8003e44 <ThdBeeper+0xe4>
 8003e2c:	f8d4 208c 	ldr.w	r2, [r4, #140]	; 0x8c
 8003e30:	2a00      	cmp	r2, #0
 8003e32:	dd07      	ble.n	8003e44 <ThdBeeper+0xe4>
  oip->dbg.lock_cnt = (cnt_t)0;
 8003e34:	f8c4 308c 	str.w	r3, [r4, #140]	; 0x8c
 8003e38:	f383 8811 	msr	BASEPRI, r3
 8003e3c:	e799      	b.n	8003d72 <ThdBeeper+0x12>
    chSysHalt("SV#4");
 8003e3e:	4807      	ldr	r0, [pc, #28]	; (8003e5c <ThdBeeper+0xfc>)
 8003e40:	f7fc fec6 	bl	8000bd0 <chSysHalt>
    chSysHalt("SV#5");
 8003e44:	4806      	ldr	r0, [pc, #24]	; (8003e60 <ThdBeeper+0x100>)
 8003e46:	f7fc fec3 	bl	8000bd0 <chSysHalt>
  chDbgCheck(interval <= (sysinterval_t)TIME_MAX_SYSTIME);
 8003e4a:	4806      	ldr	r0, [pc, #24]	; (8003e64 <ThdBeeper+0x104>)
 8003e4c:	f7fc fec0 	bl	8000bd0 <chSysHalt>
 8003e50:	08004d5c 	.word	0x08004d5c
 8003e54:	40020800 	.word	0x40020800
 8003e58:	200009f0 	.word	0x200009f0
 8003e5c:	08004c98 	.word	0x08004c98
 8003e60:	08004cc0 	.word	0x08004cc0
 8003e64:	08004e38 	.word	0x08004e38
 8003e68:	20000800 	.word	0x20000800
 8003e6c:	40014800 	.word	0x40014800

08003e70 <ThdCntr>:
    chThdSleepMilliseconds(10);
  }
}

static THD_WORKING_AREA(waThdCntr, 128);
static THD_FUNCTION(ThdCntr, arg) {
 8003e70:	e92d 4888 	stmdb	sp!, {r3, r7, fp, lr}
  palSetPad(GPIOB, GPIOB_CAL_SOUR_SEL);
}


void ThdCntrFunc(void) {
  myprintf("ThdCntr\n");
 8003e74:	4878      	ldr	r0, [pc, #480]	; (8004058 <ThdCntr+0x1e8>)
  palSetPad(GPIOB, GPIOB_REF_INT_EN);
 8003e76:	4d79      	ldr	r5, [pc, #484]	; (800405c <ThdCntr+0x1ec>)
  myprintf("calModeHSI\n");
 8003e78:	f8df 8224 	ldr.w	r8, [pc, #548]	; 80040a0 <ThdCntr+0x230>
  myprintf("ThdCntr\n");
 8003e7c:	f7ff f9b0 	bl	80031e0 <myprintf>

//adapted from AN4776
//32bit counter, running at 100MHz
void TIM5_init(void){
#warning debug
  SET_BIT(RCC->APB1ENR, RCC_APB1ENR_TIM5EN); //enable peripheral clock (should be handled by mcuconf in chibi hal system)
 8003e80:	4877      	ldr	r0, [pc, #476]	; (8004060 <ThdCntr+0x1f0>)

  TIM5->CR2 = 0; //defaults
 8003e82:	4b78      	ldr	r3, [pc, #480]	; (8004064 <ThdCntr+0x1f4>)
  SET_BIT(RCC->APB1ENR, RCC_APB1ENR_TIM5EN); //enable peripheral clock (should be handled by mcuconf in chibi hal system)
 8003e84:	6c01      	ldr	r1, [r0, #64]	; 0x40

  TIM5->ARR = 0xFFFFFFFF; //auto reload (period) set to max

  TIM5->PSC = 0; //prescaler 1

  TIM5->EGR = TIM_EGR_UG; //update (load ARR, prescaler)
 8003e86:	2601      	movs	r6, #1
  TIM5->CR2 = 0; //defaults
 8003e88:	2200      	movs	r2, #0
  SET_BIT(RCC->APB1ENR, RCC_APB1ENR_TIM5EN); //enable peripheral clock (should be handled by mcuconf in chibi hal system)
 8003e8a:	f041 0108 	orr.w	r1, r1, #8
  TIM5->ARR = 0xFFFFFFFF; //auto reload (period) set to max
 8003e8e:	f04f 34ff 	mov.w	r4, #4294967295
  SET_BIT(RCC->APB1ENR, RCC_APB1ENR_TIM5EN); //enable peripheral clock (should be handled by mcuconf in chibi hal system)
 8003e92:	6401      	str	r1, [r0, #64]	; 0x40
  TIM5->CR2 = 0; //defaults
 8003e94:	605a      	str	r2, [r3, #4]
  TIM5->SMCR = RESET; // Reset the SMCR register
 8003e96:	609a      	str	r2, [r3, #8]
  TIM5->ARR = 0xFFFFFFFF; //auto reload (period) set to max
 8003e98:	62dc      	str	r4, [r3, #44]	; 0x2c
  TIM5->PSC = 0; //prescaler 1
 8003e9a:	629a      	str	r2, [r3, #40]	; 0x28
  TIM5->EGR = TIM_EGR_UG; //update (load ARR, prescaler)
 8003e9c:	615e      	str	r6, [r3, #20]

  TIM5->CCER = 0; //all CC channels off
 8003e9e:	621a      	str	r2, [r3, #32]

  TIM5->CCMR1 = 0;
 8003ea0:	619a      	str	r2, [r3, #24]
  TIM5->CCMR1 |= TIM_CCMR1_CC1S_0; //CC1 channel is configured as input, IC1 is mapped on TI1
 8003ea2:	6999      	ldr	r1, [r3, #24]

  TIM5_init();

  //selftest muxout
  myprintf("CNT_in = %d\n", palReadPad(GPIOA, GPIOA_CNT_IN));
 8003ea4:	4c70      	ldr	r4, [pc, #448]	; (8004068 <ThdCntr+0x1f8>)
 8003ea6:	4871      	ldr	r0, [pc, #452]	; (800406c <ThdCntr+0x1fc>)
 8003ea8:	4331      	orrs	r1, r6
 8003eaa:	6199      	str	r1, [r3, #24]
                                   //CC1S bits are writable only when the channel is OFF (CC1E = 0 in TIMx_CCER).

  TIM5->CCER |= TIM_CCER_CC1P; //Circuit is sensitive to TIxFP1 falling edge (capture..
 8003eac:	6a19      	ldr	r1, [r3, #32]
 8003eae:	f041 0102 	orr.w	r1, r1, #2
 8003eb2:	6219      	str	r1, [r3, #32]
  TIM5->CCER |= TIM_CCER_CC1E; //CC1 enabled
 8003eb4:	6a19      	ldr	r1, [r3, #32]
 8003eb6:	4331      	orrs	r1, r6
 8003eb8:	6219      	str	r1, [r3, #32]

  TIM5->CR1 = 0;//upcounter, continuous
 8003eba:	601a      	str	r2, [r3, #0]
  TIM5->CR1 |= TIM_CR1_CEN; //enable
 8003ebc:	681a      	ldr	r2, [r3, #0]
 8003ebe:	4332      	orrs	r2, r6
 8003ec0:	601a      	str	r2, [r3, #0]
 8003ec2:	6921      	ldr	r1, [r4, #16]
 8003ec4:	4031      	ands	r1, r6
 8003ec6:	f7ff f98b 	bl	80031e0 <myprintf>
  myprintf("calModeIntRef100M\n");
 8003eca:	4869      	ldr	r0, [pc, #420]	; (8004070 <ThdCntr+0x200>)
 8003ecc:	f7ff f988 	bl	80031e0 <myprintf>
  palSetPad(GPIOB, GPIOB_REF_INT_EN);
 8003ed0:	2720      	movs	r7, #32
  palSetPad(GPIOA, GPIOA_CAL_EN);
 8003ed2:	2340      	movs	r3, #64	; 0x40
  palSetPad(GPIOB, GPIOB_REF_INT_EN);
 8003ed4:	832f      	strh	r7, [r5, #24]
  palClearPad(GPIOB, GPIOB_REF_INT_SEL);
 8003ed6:	836e      	strh	r6, [r5, #26]
  palSetPad(GPIOA, GPIOA_CAL_EN);
 8003ed8:	8323      	strh	r3, [r4, #24]
  palSetPad(GPIOB, GPIOB_CAL_SOUR_SEL);
 8003eda:	2310      	movs	r3, #16
 8003edc:	832b      	strh	r3, [r5, #24]

  calModeIntRef100M();
  chThdSleepMilliseconds(100);
 8003ede:	f44f 707a 	mov.w	r0, #1000	; 0x3e8
 8003ee2:	f7fd fd8d 	bl	8001a00 <chThdSleep>

  myprintf("testmode muxout low\n");
 8003ee6:	4863      	ldr	r0, [pc, #396]	; (8004074 <ThdCntr+0x204>)
 8003ee8:	f7ff f97a 	bl	80031e0 <myprintf>

  //R4 -----------------------------------------------------------
  //default: all 0

  //Programming sequence R4,R3,..,R0 (write to R0 transfers double buffered settings)
  adf_write_reg(ADF4156_reg[4]);
 8003eec:	2004      	movs	r0, #4
 8003eee:	f7fd fdb7 	bl	8001a60 <adf_write_reg>
  adf_write_reg(ADF4156_reg[3]);
 8003ef2:	2013      	movs	r0, #19
 8003ef4:	f7fd fdb4 	bl	8001a60 <adf_write_reg>
  adf_write_reg(ADF4156_reg[2]);
 8003ef8:	2012      	movs	r0, #18
 8003efa:	f7fd fdb1 	bl	8001a60 <adf_write_reg>
  adf_write_reg(ADF4156_reg[1]);
 8003efe:	2009      	movs	r0, #9
 8003f00:	f7fd fdae 	bl	8001a60 <adf_write_reg>
  adf_write_reg(ADF4156_reg[0]);
 8003f04:	485c      	ldr	r0, [pc, #368]	; (8004078 <ThdCntr+0x208>)
 8003f06:	f7fd fdab 	bl	8001a60 <adf_write_reg>
  adf_config_testmode_muxout_low();
  chThdSleepMilliseconds(1);
 8003f0a:	200a      	movs	r0, #10
 8003f0c:	f7fd fd78 	bl	8001a00 <chThdSleep>

  //disable and select ext to freeze synchronizer with 0 at output
  palClearPad(GPIOB, GPIOB_REF_INT_EN);
 8003f10:	836f      	strh	r7, [r5, #26]
  palSetPad(GPIOB, GPIOB_REF_INT_SEL);
  chThdSleepMilliseconds(100);
 8003f12:	f44f 707a 	mov.w	r0, #1000	; 0x3e8
  palSetPad(GPIOB, GPIOB_REF_INT_SEL);
 8003f16:	832e      	strh	r6, [r5, #24]
  chThdSleepMilliseconds(100);
 8003f18:	f7fd fd72 	bl	8001a00 <chThdSleep>

  myprintf("testmode muxout high\n");
 8003f1c:	4857      	ldr	r0, [pc, #348]	; (800407c <ThdCntr+0x20c>)
  palClearPad(GPIOC, GPIOC_GPS_RESETn); //ensure timepulse is high-z
 8003f1e:	4f58      	ldr	r7, [pc, #352]	; (8004080 <ThdCntr+0x210>)
  myprintf("testmode muxout high\n");
 8003f20:	f7ff f95e 	bl	80031e0 <myprintf>
  adf_write_reg(ADF4156_reg[4]);
 8003f24:	2004      	movs	r0, #4
 8003f26:	f7fd fd9b 	bl	8001a60 <adf_write_reg>
  adf_write_reg(ADF4156_reg[3]);
 8003f2a:	2013      	movs	r0, #19
 8003f2c:	f7fd fd98 	bl	8001a60 <adf_write_reg>
  adf_write_reg(ADF4156_reg[2]);
 8003f30:	2012      	movs	r0, #18
 8003f32:	f7fd fd95 	bl	8001a60 <adf_write_reg>
  adf_write_reg(ADF4156_reg[1]);
 8003f36:	2009      	movs	r0, #9
 8003f38:	f7fd fd92 	bl	8001a60 <adf_write_reg>
  adf_write_reg(ADF4156_reg[0]);
 8003f3c:	4851      	ldr	r0, [pc, #324]	; (8004084 <ThdCntr+0x214>)
 8003f3e:	f7fd fd8f 	bl	8001a60 <adf_write_reg>
  adf_config_testmode_muxout_high();
  chThdSleepMilliseconds(1);
 8003f42:	200a      	movs	r0, #10
 8003f44:	f7fd fd5c 	bl	8001a00 <chThdSleep>
  myprintf("CNT_in = %d\n", palReadPad(GPIOA, GPIOA_CNT_IN));
 8003f48:	6921      	ldr	r1, [r4, #16]
 8003f4a:	4848      	ldr	r0, [pc, #288]	; (800406c <ThdCntr+0x1fc>)
 8003f4c:	4031      	ands	r1, r6
 8003f4e:	f7ff f947 	bl	80031e0 <myprintf>

  myprintf("testmode muxout low\n");
 8003f52:	4848      	ldr	r0, [pc, #288]	; (8004074 <ThdCntr+0x204>)
 8003f54:	f7ff f944 	bl	80031e0 <myprintf>
  adf_write_reg(ADF4156_reg[4]);
 8003f58:	2004      	movs	r0, #4
 8003f5a:	f7fd fd81 	bl	8001a60 <adf_write_reg>
  adf_write_reg(ADF4156_reg[3]);
 8003f5e:	2013      	movs	r0, #19
 8003f60:	f7fd fd7e 	bl	8001a60 <adf_write_reg>
  adf_write_reg(ADF4156_reg[2]);
 8003f64:	2012      	movs	r0, #18
 8003f66:	f7fd fd7b 	bl	8001a60 <adf_write_reg>
  adf_write_reg(ADF4156_reg[1]);
 8003f6a:	2009      	movs	r0, #9
 8003f6c:	f7fd fd78 	bl	8001a60 <adf_write_reg>
  adf_write_reg(ADF4156_reg[0]);
 8003f70:	4841      	ldr	r0, [pc, #260]	; (8004078 <ThdCntr+0x208>)
 8003f72:	f7fd fd75 	bl	8001a60 <adf_write_reg>
  adf_config_testmode_muxout_low();
  chThdSleepMilliseconds(1);
 8003f76:	200a      	movs	r0, #10
 8003f78:	f7fd fd42 	bl	8001a00 <chThdSleep>
  myprintf("CNT_in = %d\n", palReadPad(GPIOA, GPIOA_CNT_IN));
 8003f7c:	6921      	ldr	r1, [r4, #16]
 8003f7e:	483b      	ldr	r0, [pc, #236]	; (800406c <ThdCntr+0x1fc>)
 8003f80:	4c41      	ldr	r4, [pc, #260]	; (8004088 <ThdCntr+0x218>)
 8003f82:	4031      	ands	r1, r6
 8003f84:	f7ff f92c 	bl	80031e0 <myprintf>
  myprintf("calModeHSI\n");
 8003f88:	4640      	mov	r0, r8
 8003f8a:	f7ff f929 	bl	80031e0 <myprintf>
  palSetPad(GPIOA, GPIOA_CAL_EN);
 8003f8e:	4936      	ldr	r1, [pc, #216]	; (8004068 <ThdCntr+0x1f8>)

}


uint32_t TIM5_get_capture_reg(void){
  return TIM5->CCR1;
 8003f90:	4e34      	ldr	r6, [pc, #208]	; (8004064 <ThdCntr+0x1f4>)
  palClearPad(GPIOB, GPIOB_CAL_SOUR_SEL);
 8003f92:	2210      	movs	r2, #16
  palClearPad(GPIOC, GPIOC_GPS_RESETn); //ensure timepulse is high-z
 8003f94:	f44f 5380 	mov.w	r3, #4096	; 0x1000
  palSetPad(GPIOA, GPIOA_CAL_EN);
 8003f98:	2040      	movs	r0, #64	; 0x40
 8003f9a:	8308      	strh	r0, [r1, #24]
  palSetPadMode(GPIOA, GPIOA_MCO_1, PAL_MODE_ALTERNATE(0) | PAL_STM32_OSPEED_HIGHEST | PAL_STM32_OTYPE_PUSHPULL);
 8003f9c:	211a      	movs	r1, #26
  palClearPad(GPIOB, GPIOB_CAL_SOUR_SEL);
 8003f9e:	836a      	strh	r2, [r5, #26]
  palSetPadMode(GPIOA, GPIOA_MCO_1, PAL_MODE_ALTERNATE(0) | PAL_STM32_OSPEED_HIGHEST | PAL_STM32_OTYPE_PUSHPULL);
 8003fa0:	f44f 7080 	mov.w	r0, #256	; 0x100
  palClearPad(GPIOC, GPIOC_GPS_RESETn); //ensure timepulse is high-z
 8003fa4:	837b      	strh	r3, [r7, #26]
  palSetPadMode(GPIOA, GPIOA_MCO_1, PAL_MODE_ALTERNATE(0) | PAL_STM32_OSPEED_HIGHEST | PAL_STM32_OTYPE_PUSHPULL);
 8003fa6:	f7fc fe5b 	bl	8000c60 <_pal_lld_setgroupmode.constprop.0>
  RCC->CFGR |= RCC_CFGR_MCO1EN;//enable output
 8003faa:	4a2d      	ldr	r2, [pc, #180]	; (8004060 <ThdCntr+0x1f0>)
 8003fac:	6893      	ldr	r3, [r2, #8]
 8003fae:	f443 7380 	orr.w	r3, r3, #256	; 0x100
 8003fb2:	6093      	str	r3, [r2, #8]
  adf_write_reg(ADF4156_reg[4]);
 8003fb4:	2004      	movs	r0, #4
 8003fb6:	f7fd fd53 	bl	8001a60 <adf_write_reg>
  adf_write_reg(ADF4156_reg[3]);
 8003fba:	2013      	movs	r0, #19
 8003fbc:	f7fd fd50 	bl	8001a60 <adf_write_reg>
  adf_write_reg(ADF4156_reg[2]);
 8003fc0:	4832      	ldr	r0, [pc, #200]	; (800408c <ThdCntr+0x21c>)
 8003fc2:	f7fd fd4d 	bl	8001a60 <adf_write_reg>
  adf_write_reg(ADF4156_reg[1]);
 8003fc6:	2009      	movs	r0, #9
 8003fc8:	f7fd fd4a 	bl	8001a60 <adf_write_reg>
  adf_write_reg(ADF4156_reg[0]);
 8003fcc:	4830      	ldr	r0, [pc, #192]	; (8004090 <ThdCntr+0x220>)
 8003fce:	f7fd fd47 	bl	8001a60 <adf_write_reg>
 8003fd2:	f04f 0930 	mov.w	r9, #48	; 0x30
 8003fd6:	6b73      	ldr	r3, [r6, #52]	; 0x34
 8003fd8:	f8d6 a034 	ldr.w	sl, [r6, #52]	; 0x34
 8003fdc:	f389 8811 	msr	BASEPRI, r9
  if (unlikely((oip->dbg.isr_cnt != (cnt_t)0) ||
 8003fe0:	e9d4 3222 	ldrd	r3, r2, [r4, #136]	; 0x88
 8003fe4:	4313      	orrs	r3, r2
 8003fe6:	d131      	bne.n	800404c <ThdCntr+0x1dc>
  oip->dbg.lock_cnt = (cnt_t)1;
 8003fe8:	f04f 0b01 	mov.w	fp, #1
 8003fec:	f242 7110 	movw	r1, #10000	; 0x2710
 8003ff0:	2008      	movs	r0, #8
 8003ff2:	f8c4 b08c 	str.w	fp, [r4, #140]	; 0x8c
 8003ff6:	f7fd fa3b 	bl	8001470 <chSchGoSleepTimeoutS>
  if (unlikely((oip->dbg.isr_cnt != (cnt_t)0) ||
 8003ffa:	f8d4 3088 	ldr.w	r3, [r4, #136]	; 0x88
 8003ffe:	bb43      	cbnz	r3, 8004052 <ThdCntr+0x1e2>
 8004000:	f8d4 208c 	ldr.w	r2, [r4, #140]	; 0x8c
 8004004:	2a00      	cmp	r2, #0
 8004006:	dd24      	ble.n	8004052 <ThdCntr+0x1e2>
  oip->dbg.lock_cnt = (cnt_t)0;
 8004008:	f8c4 308c 	str.w	r3, [r4, #140]	; 0x8c
 800400c:	f383 8811 	msr	BASEPRI, r3
 8004010:	6b71      	ldr	r1, [r6, #52]	; 0x34
    cntr_count_CAL_100M();
    a = TIM5_get_capture_reg();
    chThdSleepMilliseconds(1000);
    b = TIM5_get_capture_reg();

    myprintf("diff: 0x%10u\n", b-a);
 8004012:	4820      	ldr	r0, [pc, #128]	; (8004094 <ThdCntr+0x224>)
 8004014:	eba1 010a 	sub.w	r1, r1, sl
 8004018:	f7ff f8e2 	bl	80031e0 <myprintf>
 800401c:	f389 8811 	msr	BASEPRI, r9
  if (unlikely((oip->dbg.isr_cnt != (cnt_t)0) ||
 8004020:	e9d4 3222 	ldrd	r3, r2, [r4, #136]	; 0x88
 8004024:	4313      	orrs	r3, r2
 8004026:	d111      	bne.n	800404c <ThdCntr+0x1dc>
 8004028:	2164      	movs	r1, #100	; 0x64
 800402a:	2008      	movs	r0, #8
  oip->dbg.lock_cnt = (cnt_t)1;
 800402c:	f8c4 b08c 	str.w	fp, [r4, #140]	; 0x8c
 8004030:	f7fd fa1e 	bl	8001470 <chSchGoSleepTimeoutS>
  if (unlikely((oip->dbg.isr_cnt != (cnt_t)0) ||
 8004034:	f8d4 3088 	ldr.w	r3, [r4, #136]	; 0x88
 8004038:	b95b      	cbnz	r3, 8004052 <ThdCntr+0x1e2>
 800403a:	f8d4 208c 	ldr.w	r2, [r4, #140]	; 0x8c
 800403e:	2a00      	cmp	r2, #0
 8004040:	dd07      	ble.n	8004052 <ThdCntr+0x1e2>
  oip->dbg.lock_cnt = (cnt_t)0;
 8004042:	f8c4 308c 	str.w	r3, [r4, #140]	; 0x8c
 8004046:	f383 8811 	msr	BASEPRI, r3
 800404a:	e79d      	b.n	8003f88 <ThdCntr+0x118>
    chSysHalt("SV#4");
 800404c:	4812      	ldr	r0, [pc, #72]	; (8004098 <ThdCntr+0x228>)
 800404e:	f7fc fdbf 	bl	8000bd0 <chSysHalt>
    chSysHalt("SV#5");
 8004052:	4812      	ldr	r0, [pc, #72]	; (800409c <ThdCntr+0x22c>)
 8004054:	f7fc fdbc 	bl	8000bd0 <chSysHalt>
 8004058:	08004d68 	.word	0x08004d68
 800405c:	40020400 	.word	0x40020400
 8004060:	40023800 	.word	0x40023800
 8004064:	40000c00 	.word	0x40000c00
 8004068:	40020000 	.word	0x40020000
 800406c:	08004d74 	.word	0x08004d74
 8004070:	08004d84 	.word	0x08004d84
 8004074:	08004d98 	.word	0x08004d98
 8004078:	100b8000 	.word	0x100b8000
 800407c:	08004db0 	.word	0x08004db0
 8004080:	40020800 	.word	0x40020800
 8004084:	080b8000 	.word	0x080b8000
 8004088:	200009f0 	.word	0x200009f0
 800408c:	00108012 	.word	0x00108012
 8004090:	77d00000 	.word	0x77d00000
 8004094:	08004dd4 	.word	0x08004dd4
 8004098:	08004c98 	.word	0x08004c98
 800409c:	08004cc0 	.word	0x08004cc0
 80040a0:	08004dc8 	.word	0x08004dc8
	...

080040b0 <chThdExit>:
void chThdExit(msg_t msg) {
 80040b0:	b538      	push	{r3, r4, r5, lr}
 80040b2:	2330      	movs	r3, #48	; 0x30
 80040b4:	f383 8811 	msr	BASEPRI, r3
  if (unlikely((oip->dbg.isr_cnt != (cnt_t)0) ||
 80040b8:	4b15      	ldr	r3, [pc, #84]	; (8004110 <chThdExit+0x60>)
 80040ba:	e9d3 2122 	ldrd	r2, r1, [r3, #136]	; 0x88
 80040be:	430a      	orrs	r2, r1
 80040c0:	d11a      	bne.n	80040f8 <chThdExit+0x48>
  return __sch_get_currthread();
 80040c2:	68dc      	ldr	r4, [r3, #12]
  return (bool)(lp->next != lp);
 80040c4:	6ae2      	ldr	r2, [r4, #44]	; 0x2c
  while (unlikely(ch_list_notempty(&currtp->waiting))) {
 80040c6:	f104 052c 	add.w	r5, r4, #44	; 0x2c
  oip->dbg.lock_cnt = (cnt_t)1;
 80040ca:	2101      	movs	r1, #1
 80040cc:	4295      	cmp	r5, r2
 80040ce:	f8c3 108c 	str.w	r1, [r3, #140]	; 0x8c
  currtp->u.exitcode = msg;
 80040d2:	62a0      	str	r0, [r4, #40]	; 0x28
  while (unlikely(ch_list_notempty(&currtp->waiting))) {
 80040d4:	d107      	bne.n	80040e6 <chThdExit+0x36>
  if (unlikely(currtp->refs == (trefs_t)0)) {
 80040d6:	f894 3026 	ldrb.w	r3, [r4, #38]	; 0x26
 80040da:	b183      	cbz	r3, 80040fe <chThdExit+0x4e>
}
 80040dc:	e8bd 4038 	ldmia.w	sp!, {r3, r4, r5, lr}
  chSchGoSleepS(CH_STATE_FINAL);
 80040e0:	200f      	movs	r0, #15
 80040e2:	f7fd b995 	b.w	8001410 <chSchGoSleepS>
  lp->next = p->next;
 80040e6:	6813      	ldr	r3, [r2, #0]
 80040e8:	62e3      	str	r3, [r4, #44]	; 0x2c
    (void) chSchReadyI(threadref(ch_list_unlink(&currtp->waiting)));
 80040ea:	4610      	mov	r0, r2
 80040ec:	f7fd f810 	bl	8001110 <chSchReadyI.isra.0>
  return (bool)(lp->next != lp);
 80040f0:	6ae2      	ldr	r2, [r4, #44]	; 0x2c
  while (unlikely(ch_list_notempty(&currtp->waiting))) {
 80040f2:	42aa      	cmp	r2, r5
 80040f4:	d0ef      	beq.n	80040d6 <chThdExit+0x26>
 80040f6:	e7f6      	b.n	80040e6 <chThdExit+0x36>
    chSysHalt("SV#4");
 80040f8:	4806      	ldr	r0, [pc, #24]	; (8004114 <chThdExit+0x64>)
 80040fa:	f7fc fd69 	bl	8000bd0 <chSysHalt>
    if (unlikely(((currtp->flags & CH_FLAG_MODE_MASK) == CH_FLAG_MODE_STATIC))) {
 80040fe:	f894 3025 	ldrb.w	r3, [r4, #37]	; 0x25
 8004102:	079b      	lsls	r3, r3, #30
 8004104:	d1ea      	bne.n	80040dc <chThdExit+0x2c>
  p->prev->next = p->next;
 8004106:	e9d4 3204 	ldrd	r3, r2, [r4, #16]
 800410a:	6013      	str	r3, [r2, #0]
  p->next->prev = p->prev;
 800410c:	605a      	str	r2, [r3, #4]
  return p;
 800410e:	e7e5      	b.n	80040dc <chThdExit+0x2c>
 8004110:	200009f0 	.word	0x200009f0
 8004114:	08004c98 	.word	0x08004c98
	...

08004120 <SVC_Handler>:
  __ASM volatile ("MRS %0, psp"  : "=r" (result) );
 8004120:	f3ef 8309 	mrs	r3, PSP
    FPU->FPCCR &= ~FPU_FPCCR_LSPACT_Msk;
 8004124:	4905      	ldr	r1, [pc, #20]	; (800413c <SVC_Handler+0x1c>)
 8004126:	6b4a      	ldr	r2, [r1, #52]	; 0x34
 8004128:	f022 0201 	bic.w	r2, r2, #1
    psp += sizeof (struct port_extctx);
 800412c:	3368      	adds	r3, #104	; 0x68
    FPU->FPCCR &= ~FPU_FPCCR_LSPACT_Msk;
 800412e:	634a      	str	r2, [r1, #52]	; 0x34
  __ASM volatile ("MSR psp, %0" : : "r" (topOfProcStack) : );
 8004130:	f383 8809 	msr	PSP, r3
  __ASM volatile ("MSR basepri, %0" : : "r" (basePri) : "memory");
 8004134:	2300      	movs	r3, #0
 8004136:	f383 8811 	msr	BASEPRI, r3
}
 800413a:	4770      	bx	lr
 800413c:	e000ef00 	.word	0xe000ef00

08004140 <__early_init>:

static void stm32_gpio_init(void) {

  /* Enabling GPIO-related clocks, the mask comes from the
     registry header file.*/
  rccResetAHB1(STM32_GPIO_EN_MASK);
 8004140:	4b5c      	ldr	r3, [pc, #368]	; (80042b4 <__early_init+0x174>)
  gpiop->OTYPER  = config->otyper;
 8004142:	495d      	ldr	r1, [pc, #372]	; (80042b8 <__early_init+0x178>)
  rccResetAHB1(STM32_GPIO_EN_MASK);
 8004144:	691a      	ldr	r2, [r3, #16]
  gpiop->PUPDR   = config->pupdr;
 8004146:	f8df c1b4 	ldr.w	ip, [pc, #436]	; 80042fc <__early_init+0x1bc>
  rccResetAHB1(STM32_GPIO_EN_MASK);
 800414a:	f042 0287 	orr.w	r2, r2, #135	; 0x87
/**
 * @brief   Early initialization code.
 * @details GPIO ports and system clocks are initialized before everything
 *          else.
 */
void __early_init(void) {
 800414e:	e92d 47f0 	stmdb	sp!, {r4, r5, r6, r7, r8, r9, sl, lr}
  rccResetAHB1(STM32_GPIO_EN_MASK);
 8004152:	611a      	str	r2, [r3, #16]
 8004154:	6918      	ldr	r0, [r3, #16]
  gpiop->OTYPER  = config->otyper;
 8004156:	4c59      	ldr	r4, [pc, #356]	; (80042bc <__early_init+0x17c>)
  gpiop->PUPDR   = config->pupdr;
 8004158:	4f59      	ldr	r7, [pc, #356]	; (80042c0 <__early_init+0x180>)
  gpiop->MODER   = config->moder;
 800415a:	f8df 91a4 	ldr.w	r9, [pc, #420]	; 8004300 <__early_init+0x1c0>
  gpiop->PUPDR   = config->pupdr;
 800415e:	f8df 81a4 	ldr.w	r8, [pc, #420]	; 8004304 <__early_init+0x1c4>
  RCC->APB1ENR = RCC_APB1ENR_PWREN;
#endif

  /* PWR initialization.*/
#if defined(STM32F4XX) || defined(__DOXYGEN__)
  PWR->CR = STM32_VOS;
 8004162:	4e58      	ldr	r6, [pc, #352]	; (80042c4 <__early_init+0x184>)
  gpiop->MODER   = config->moder;
 8004164:	f8df e1a0 	ldr.w	lr, [pc, #416]	; 8004308 <__early_init+0x1c8>
  rccResetAHB1(STM32_GPIO_EN_MASK);
 8004168:	f020 0087 	bic.w	r0, r0, #135	; 0x87
 800416c:	6118      	str	r0, [r3, #16]
 800416e:	6918      	ldr	r0, [r3, #16]
  rccEnableAHB1(STM32_GPIO_EN_MASK, true);
 8004170:	6b18      	ldr	r0, [r3, #48]	; 0x30
 8004172:	f040 0087 	orr.w	r0, r0, #135	; 0x87
 8004176:	6318      	str	r0, [r3, #48]	; 0x30
 8004178:	6d18      	ldr	r0, [r3, #80]	; 0x50
 800417a:	f040 0087 	orr.w	r0, r0, #135	; 0x87
 800417e:	6518      	str	r0, [r3, #80]	; 0x50
  gpiop->OTYPER  = config->otyper;
 8004180:	2200      	movs	r2, #0
  gpiop->OSPEEDR = config->ospeedr;
 8004182:	4851      	ldr	r0, [pc, #324]	; (80042c8 <__early_init+0x188>)
  rccEnableAHB1(STM32_GPIO_EN_MASK, true);
 8004184:	6d1d      	ldr	r5, [r3, #80]	; 0x50
  gpiop->OTYPER  = config->otyper;
 8004186:	604a      	str	r2, [r1, #4]
  gpiop->OSPEEDR = config->ospeedr;
 8004188:	6088      	str	r0, [r1, #8]
  gpiop->PUPDR   = config->pupdr;
 800418a:	4850      	ldr	r0, [pc, #320]	; (80042cc <__early_init+0x18c>)
 800418c:	60c8      	str	r0, [r1, #12]
  gpiop->ODR     = config->odr;
 800418e:	2002      	movs	r0, #2
 8004190:	6148      	str	r0, [r1, #20]
  gpiop->AFRL    = config->afrl;
 8004192:	f247 7002 	movw	r0, #30466	; 0x7702
 8004196:	6208      	str	r0, [r1, #32]
  gpiop->AFRH    = config->afrh;
 8004198:	f44f 60ee 	mov.w	r0, #1904	; 0x770
 800419c:	6248      	str	r0, [r1, #36]	; 0x24
  gpiop->MODER   = config->moder;
 800419e:	f100 5024 	add.w	r0, r0, #687865856	; 0x29000000
 80041a2:	f500 1023 	add.w	r0, r0, #2670592	; 0x28c000
 80041a6:	f600 1034 	addw	r0, r0, #2356	; 0x934
 80041aa:	6008      	str	r0, [r1, #0]
  gpiop->ODR     = config->odr;
 80041ac:	f44f 5a80 	mov.w	sl, #4096	; 0x1000
  gpiop->OTYPER  = config->otyper;
 80041b0:	4847      	ldr	r0, [pc, #284]	; (80042d0 <__early_init+0x190>)
  gpiop->OSPEEDR = config->ospeedr;
 80041b2:	4948      	ldr	r1, [pc, #288]	; (80042d4 <__early_init+0x194>)
  gpiop->OTYPER  = config->otyper;
 80041b4:	6062      	str	r2, [r4, #4]
  gpiop->OSPEEDR = config->ospeedr;
 80041b6:	f04f 3555 	mov.w	r5, #1431655765	; 0x55555555
 80041ba:	60a1      	str	r1, [r4, #8]
  gpiop->PUPDR   = config->pupdr;
 80041bc:	60e7      	str	r7, [r4, #12]
  gpiop->OTYPER  = config->otyper;
 80041be:	4946      	ldr	r1, [pc, #280]	; (80042d8 <__early_init+0x198>)
  gpiop->ODR     = config->odr;
 80041c0:	f8c4 a014 	str.w	sl, [r4, #20]
  gpiop->AFRL    = config->afrl;
 80041c4:	6222      	str	r2, [r4, #32]
  gpiop->AFRH    = config->afrh;
 80041c6:	6262      	str	r2, [r4, #36]	; 0x24
  gpiop->MODER   = config->moder;
 80041c8:	f8c4 9000 	str.w	r9, [r4]
  gpiop->ODR     = config->odr;
 80041cc:	f640 0402 	movw	r4, #2050	; 0x802
  gpiop->OTYPER  = config->otyper;
 80041d0:	6042      	str	r2, [r0, #4]
  gpiop->OSPEEDR = config->ospeedr;
 80041d2:	6085      	str	r5, [r0, #8]
  gpiop->PUPDR   = config->pupdr;
 80041d4:	f8c0 800c 	str.w	r8, [r0, #12]
  gpiop->ODR     = config->odr;
 80041d8:	6144      	str	r4, [r0, #20]
  gpiop->AFRL    = config->afrl;
 80041da:	f44f 1440 	mov.w	r4, #3145728	; 0x300000
 80041de:	6204      	str	r4, [r0, #32]
  RCC->APB1ENR = RCC_APB1ENR_PWREN | RCC_APB1ENR_RTCAPBEN;
 80041e0:	4f3e      	ldr	r7, [pc, #248]	; (80042dc <__early_init+0x19c>)
  gpiop->AFRH    = config->afrh;
 80041e2:	6242      	str	r2, [r0, #36]	; 0x24
  gpiop->MODER   = config->moder;
 80041e4:	f8c0 e000 	str.w	lr, [r0]
  gpiop->OTYPER  = config->otyper;
 80041e8:	604a      	str	r2, [r1, #4]
  gpiop->OSPEEDR = config->ospeedr;
 80041ea:	608d      	str	r5, [r1, #8]
  gpiop->PUPDR   = config->pupdr;
 80041ec:	f8c1 c00c 	str.w	ip, [r1, #12]
  gpiop->ODR     = config->odr;
 80041f0:	614a      	str	r2, [r1, #20]
  gpiop->AFRL    = config->afrl;
 80041f2:	620a      	str	r2, [r1, #32]
  gpiop->AFRH    = config->afrh;
 80041f4:	624a      	str	r2, [r1, #36]	; 0x24
  gpiop->MODER   = config->moder;
 80041f6:	600a      	str	r2, [r1, #0]
  PWR->CR = STM32_VOS;
 80041f8:	f44f 4240 	mov.w	r2, #49152	; 0xc000
  RCC->APB1ENR = RCC_APB1ENR_PWREN | RCC_APB1ENR_RTCAPBEN;
 80041fc:	641f      	str	r7, [r3, #64]	; 0x40
  PWR->CR = STM32_VOS;
 80041fe:	6032      	str	r2, [r6, #0]
  PWR->CR = 0;
#endif

  /* HSI setup, it enforces the reset situation in order to handle possible
     problems with JTAG probes and re-initializations.*/
  RCC->CR |= RCC_CR_HSION;                  /* Make sure HSI is ON.         */
 8004200:	681a      	ldr	r2, [r3, #0]
 8004202:	f042 0201 	orr.w	r2, r2, #1
 8004206:	601a      	str	r2, [r3, #0]
  while (!(RCC->CR & RCC_CR_HSIRDY))
 8004208:	681a      	ldr	r2, [r3, #0]
 800420a:	0791      	lsls	r1, r2, #30
 800420c:	d5fc      	bpl.n	8004208 <__early_init+0xc8>
    ;                                       /* Wait until HSI is stable.    */

  /* HSI is selected as new source without touching the other fields in
     CFGR. Clearing the register has to be postponed after HSI is the
     new source.*/
  RCC->CFGR &= ~RCC_CFGR_SW;                /* Reset SW, selecting HSI.     */
 800420e:	6899      	ldr	r1, [r3, #8]
  while ((RCC->CFGR & RCC_CFGR_SWS) != RCC_CFGR_SWS_HSI)
 8004210:	4a28      	ldr	r2, [pc, #160]	; (80042b4 <__early_init+0x174>)
  RCC->CFGR &= ~RCC_CFGR_SW;                /* Reset SW, selecting HSI.     */
 8004212:	f021 0103 	bic.w	r1, r1, #3
 8004216:	6099      	str	r1, [r3, #8]
  while ((RCC->CFGR & RCC_CFGR_SWS) != RCC_CFGR_SWS_HSI)
 8004218:	6893      	ldr	r3, [r2, #8]
 800421a:	f013 030c 	ands.w	r3, r3, #12
 800421e:	d1fb      	bne.n	8004218 <__early_init+0xd8>
    ;                                       /* Wait until HSI is selected.  */

  /* Registers finally cleared to reset values.*/
  RCC->CR &= RCC_CR_HSITRIM | RCC_CR_HSION; /* CR Reset value.              */
 8004220:	6811      	ldr	r1, [r2, #0]
    ;                           /* Waits until LSI is stable.               */
#endif

#if STM32_ACTIVATE_PLL
  /* PLL activation.*/
  RCC->PLLCFGR = STM32_PLLQ | STM32_PLLSRC | STM32_PLLP | STM32_PLLN |
 8004222:	482f      	ldr	r0, [pc, #188]	; (80042e0 <__early_init+0x1a0>)
  RCC->CR &= RCC_CR_HSITRIM | RCC_CR_HSION; /* CR Reset value.              */
 8004224:	f001 01f9 	and.w	r1, r1, #249	; 0xf9
 8004228:	6011      	str	r1, [r2, #0]
  RCC->CFGR = 0;                            /* CFGR reset value.            */
 800422a:	6093      	str	r3, [r2, #8]
  RCC->PLLCFGR = STM32_PLLQ | STM32_PLLSRC | STM32_PLLP | STM32_PLLN |
 800422c:	6050      	str	r0, [r2, #4]
                 STM32_PLLM;
  RCC->CR |= RCC_CR_PLLON;
 800422e:	6813      	ldr	r3, [r2, #0]

  /* Synchronization with voltage regulator stabilization.*/
#if defined(STM32F4XX)
  while ((PWR->CSR & PWR_CSR_VOSRDY) == 0)
 8004230:	4924      	ldr	r1, [pc, #144]	; (80042c4 <__early_init+0x184>)
  RCC->CR |= RCC_CR_PLLON;
 8004232:	f043 7380 	orr.w	r3, r3, #16777216	; 0x1000000
 8004236:	6013      	str	r3, [r2, #0]
  while ((PWR->CSR & PWR_CSR_VOSRDY) == 0)
 8004238:	684b      	ldr	r3, [r1, #4]
 800423a:	045a      	lsls	r2, r3, #17
 800423c:	d5fc      	bpl.n	8004238 <__early_init+0xf8>
      ;
#endif /* STM32_OVERDRIVE_REQUIRED */
#endif /* defined(STM32F4XX) */

  /* Waiting for PLL lock.*/
  while (!(RCC->CR & RCC_CR_PLLRDY))
 800423e:	4a1d      	ldr	r2, [pc, #116]	; (80042b4 <__early_init+0x174>)
 8004240:	6813      	ldr	r3, [r2, #0]
 8004242:	019b      	lsls	r3, r3, #6
 8004244:	d5fc      	bpl.n	8004240 <__early_init+0x100>

  /* Flash setup.*/
#if !defined(STM32_REMOVE_REVISION_A_FIX)
  /* Some old revisions of F4x MCUs randomly crashes with compiler
     optimizations enabled AND flash caches enabled. */
  if ((DBGMCU->IDCODE == 0x20006411) && (SCB->CPUID == 0x410FC241))
 8004246:	4b27      	ldr	r3, [pc, #156]	; (80042e4 <__early_init+0x1a4>)
  RCC->CFGR = STM32_MCO2PRE | STM32_MCO2SEL | STM32_MCO1PRE | STM32_MCO1SEL |
 8004248:	4c27      	ldr	r4, [pc, #156]	; (80042e8 <__early_init+0x1a8>)
 800424a:	6094      	str	r4, [r2, #8]
    RCC->DCKCFGR = dckcfgr |
 800424c:	2003      	movs	r0, #3
  RCC->DCKCFGR2 = STM32_CK48MSEL;
 800424e:	2100      	movs	r1, #0
    RCC->DCKCFGR = dckcfgr |
 8004250:	f8c2 008c 	str.w	r0, [r2, #140]	; 0x8c
  RCC->DCKCFGR2 = STM32_CK48MSEL;
 8004254:	f8c2 1094 	str.w	r1, [r2, #148]	; 0x94
  if ((DBGMCU->IDCODE == 0x20006411) && (SCB->CPUID == 0x410FC241))
 8004258:	681a      	ldr	r2, [r3, #0]
 800425a:	4b24      	ldr	r3, [pc, #144]	; (80042ec <__early_init+0x1ac>)
 800425c:	429a      	cmp	r2, r3
 800425e:	d01e      	beq.n	800429e <__early_init+0x15e>
    FLASH->ACR = FLASH_ACR_PRFTEN | STM32_FLASHBITS;
  else
    FLASH->ACR = FLASH_ACR_PRFTEN | FLASH_ACR_ICEN |
 8004260:	4b23      	ldr	r3, [pc, #140]	; (80042f0 <__early_init+0x1b0>)
 8004262:	f240 7203 	movw	r2, #1795	; 0x703
 8004266:	601a      	str	r2, [r3, #0]
                 FLASH_ACR_DCEN | STM32_FLASHBITS;
#else
  FLASH->ACR = FLASH_ACR_PRFTEN | FLASH_ACR_ICEN |
               FLASH_ACR_DCEN | STM32_FLASHBITS;
#endif
  while ((FLASH->ACR & FLASH_ACR_LATENCY_Msk) !=
 8004268:	4a21      	ldr	r2, [pc, #132]	; (80042f0 <__early_init+0x1b0>)
 800426a:	6813      	ldr	r3, [r2, #0]
 800426c:	f003 030f 	and.w	r3, r3, #15
 8004270:	2b03      	cmp	r3, #3
 8004272:	d1fa      	bne.n	800426a <__early_init+0x12a>
         (STM32_FLASHBITS & FLASH_ACR_LATENCY_Msk)) {
  }

  /* Switching to the configured clock source if it is different from HSI.*/
#if (STM32_SW != STM32_SW_HSI)
  RCC->CFGR |= STM32_SW;        /* Switches on the selected clock source.   */
 8004274:	4a0f      	ldr	r2, [pc, #60]	; (80042b4 <__early_init+0x174>)
 8004276:	6893      	ldr	r3, [r2, #8]
 8004278:	f043 0302 	orr.w	r3, r3, #2
 800427c:	6093      	str	r3, [r2, #8]
  while ((RCC->CFGR & RCC_CFGR_SWS) != (STM32_SW << 2))
 800427e:	6893      	ldr	r3, [r2, #8]
 8004280:	f003 030c 	and.w	r3, r3, #12
 8004284:	2b08      	cmp	r3, #8
 8004286:	d1fa      	bne.n	800427e <__early_init+0x13e>
#endif
#endif /* STM32_NO_INIT */

  /* SYSCFG clock enabled here because it is a multi-functional unit shared
     among multiple drivers.*/
  rccEnableAPB2(RCC_APB2ENR_SYSCFGEN, true);
 8004288:	6c53      	ldr	r3, [r2, #68]	; 0x44
 800428a:	f443 4380 	orr.w	r3, r3, #16384	; 0x4000
 800428e:	6453      	str	r3, [r2, #68]	; 0x44
 8004290:	6e53      	ldr	r3, [r2, #100]	; 0x64
 8004292:	f443 4380 	orr.w	r3, r3, #16384	; 0x4000
 8004296:	6653      	str	r3, [r2, #100]	; 0x64
 8004298:	6e53      	ldr	r3, [r2, #100]	; 0x64

  stm32_gpio_init();
  stm32_clock_init();
}
 800429a:	e8bd 87f0 	ldmia.w	sp!, {r4, r5, r6, r7, r8, r9, sl, pc}
  if ((DBGMCU->IDCODE == 0x20006411) && (SCB->CPUID == 0x410FC241))
 800429e:	4a15      	ldr	r2, [pc, #84]	; (80042f4 <__early_init+0x1b4>)
 80042a0:	4b15      	ldr	r3, [pc, #84]	; (80042f8 <__early_init+0x1b8>)
 80042a2:	6812      	ldr	r2, [r2, #0]
 80042a4:	429a      	cmp	r2, r3
 80042a6:	d1db      	bne.n	8004260 <__early_init+0x120>
    FLASH->ACR = FLASH_ACR_PRFTEN | STM32_FLASHBITS;
 80042a8:	4b11      	ldr	r3, [pc, #68]	; (80042f0 <__early_init+0x1b0>)
 80042aa:	f240 1203 	movw	r2, #259	; 0x103
 80042ae:	601a      	str	r2, [r3, #0]
 80042b0:	e7da      	b.n	8004268 <__early_init+0x128>
 80042b2:	bf00      	nop
 80042b4:	40023800 	.word	0x40023800
 80042b8:	40020000 	.word	0x40020000
 80042bc:	40020400 	.word	0x40020400
 80042c0:	00aaa0a8 	.word	0x00aaa0a8
 80042c4:	40007000 	.word	0x40007000
 80042c8:	556b75a5 	.word	0x556b75a5
 80042cc:	a8800a02 	.word	0xa8800a02
 80042d0:	40020800 	.word	0x40020800
 80042d4:	9a555555 	.word	0x9a555555
 80042d8:	40021c00 	.word	0x40021c00
 80042dc:	10000400 	.word	0x10000400
 80042e0:	04001908 	.word	0x04001908
 80042e4:	e0042000 	.word	0xe0042000
 80042e8:	38881000 	.word	0x38881000
 80042ec:	20006411 	.word	0x20006411
 80042f0:	40023c00 	.word	0x40023c00
 80042f4:	e000ed00 	.word	0xe000ed00
 80042f8:	410fc241 	.word	0x410fc241
 80042fc:	aaaaaaa0 	.word	0xaaaaaaa0
 8004300:	55000581 	.word	0x55000581
 8004304:	880aaa82 	.word	0x880aaa82
 8004308:	11500034 	.word	0x11500034
 800430c:	00000000 	.word	0x00000000

08004310 <main>:
  rccResetAHB1(~STM32_GPIO_EN_MASK);
 8004310:	4b21      	ldr	r3, [pc, #132]	; (8004398 <main+0x88>)
 8004312:	691a      	ldr	r2, [r3, #16]
 8004314:	f062 0287 	orn	r2, r2, #135	; 0x87


/*
 * Application entry point.
 */
int main(void) {
 8004318:	e92d 4880 	stmdb	sp!, {r7, fp, lr}
 800431c:	611a      	str	r2, [r3, #16]
 800431e:	691a      	ldr	r2, [r3, #16]
 8004320:	f002 0287 	and.w	r2, r2, #135	; 0x87
 8004324:	611a      	str	r2, [r3, #16]
 8004326:	691a      	ldr	r2, [r3, #16]
  rccResetAPB1(~RCC_APB1RSTR_PWRRST);
 8004328:	6a1a      	ldr	r2, [r3, #32]
 800432a:	f062 5280 	orn	r2, r2, #268435456	; 0x10000000
 800432e:	621a      	str	r2, [r3, #32]
 8004330:	6a1a      	ldr	r2, [r3, #32]
 8004332:	f002 5280 	and.w	r2, r2, #268435456	; 0x10000000
 8004336:	621a      	str	r2, [r3, #32]
  rccResetAPB2(~0);
 8004338:	f04f 30ff 	mov.w	r0, #4294967295
  rccResetAPB1(~RCC_APB1RSTR_PWRRST);
 800433c:	6a1a      	ldr	r2, [r3, #32]
  rccResetAPB2(~0);
 800433e:	6a5a      	ldr	r2, [r3, #36]	; 0x24
 8004340:	6258      	str	r0, [r3, #36]	; 0x24
 8004342:	2100      	movs	r1, #0
 8004344:	6a5a      	ldr	r2, [r3, #36]	; 0x24
 8004346:	6259      	str	r1, [r3, #36]	; 0x24
 8004348:	6a5a      	ldr	r2, [r3, #36]	; 0x24
  rccEnablePWRInterface(true);
 800434a:	6c1a      	ldr	r2, [r3, #64]	; 0x40
  PWR->CR |= PWR_CR_DBP;
 800434c:	4813      	ldr	r0, [pc, #76]	; (800439c <main+0x8c>)
  rccEnablePWRInterface(true);
 800434e:	f042 5280 	orr.w	r2, r2, #268435456	; 0x10000000
 8004352:	641a      	str	r2, [r3, #64]	; 0x40
 8004354:	6e1a      	ldr	r2, [r3, #96]	; 0x60
 8004356:	f042 5280 	orr.w	r2, r2, #268435456	; 0x10000000
 800435a:	661a      	str	r2, [r3, #96]	; 0x60
 800435c:	6e1a      	ldr	r2, [r3, #96]	; 0x60
  PWR->CR |= PWR_CR_DBP;
 800435e:	6802      	ldr	r2, [r0, #0]
 8004360:	f442 7280 	orr.w	r2, r2, #256	; 0x100
 8004364:	6002      	str	r2, [r0, #0]
  if ((RCC->BDCR & STM32_RTCSEL_MASK) != STM32_RTCSEL) {
 8004366:	6f1a      	ldr	r2, [r3, #112]	; 0x70
 8004368:	f402 7240 	and.w	r2, r2, #768	; 0x300
 800436c:	f5b2 7f00 	cmp.w	r2, #512	; 0x200
 8004370:	b089      	sub	sp, #36	; 0x24
 8004372:	d003      	beq.n	800437c <main+0x6c>
    RCC->BDCR = RCC_BDCR_BDRST;
 8004374:	f44f 3280 	mov.w	r2, #65536	; 0x10000
 8004378:	671a      	str	r2, [r3, #112]	; 0x70
    RCC->BDCR = 0;
 800437a:	6719      	str	r1, [r3, #112]	; 0x70
  PWR->CSR &= ~PWR_CSR_BRE;
 800437c:	4807      	ldr	r0, [pc, #28]	; (800439c <main+0x8c>)
 * @init
 */
void dmaInit(void) {
  unsigned i;

  dma.allocated_mask = 0U;
 800437e:	4a08      	ldr	r2, [pc, #32]	; (80043a0 <main+0x90>)
 8004380:	6841      	ldr	r1, [r0, #4]
 8004382:	4b08      	ldr	r3, [pc, #32]	; (80043a4 <main+0x94>)
 8004384:	f421 7100 	bic.w	r1, r1, #512	; 0x200
 8004388:	2400      	movs	r4, #0
 800438a:	6041      	str	r1, [r0, #4]
 800438c:	4906      	ldr	r1, [pc, #24]	; (80043a8 <main+0x98>)
 800438e:	6014      	str	r4, [r2, #0]
  for (i = 0U; i < STM32_DMA_STREAMS; i++) {
 8004390:	f103 00c0 	add.w	r0, r3, #192	; 0xc0
 8004394:	e00c      	b.n	80043b0 <main+0xa0>
 8004396:	bf00      	nop
 8004398:	40023800 	.word	0x40023800
 800439c:	40007000 	.word	0x40007000
 80043a0:	20000cf8 	.word	0x20000cf8
 80043a4:	08004e90 	.word	0x08004e90
 80043a8:	40026010 	.word	0x40026010
    _stm32_dma_streams[i].stream->CR = STM32_DMA_CR_RESET_VALUE;
 80043ac:	f853 1c0c 	ldr.w	r1, [r3, #-12]
 80043b0:	600c      	str	r4, [r1, #0]
  for (i = 0U; i < STM32_DMA_STREAMS; i++) {
 80043b2:	330c      	adds	r3, #12
 80043b4:	4298      	cmp	r0, r3
 80043b6:	f102 0208 	add.w	r2, r2, #8
    dma.streams[i].func = NULL;
 80043ba:	f842 4c04 	str.w	r4, [r2, #-4]
  for (i = 0U; i < STM32_DMA_STREAMS; i++) {
 80043be:	d1f5      	bne.n	80043ac <main+0x9c>
  }
  DMA1->LIFCR = 0xFFFFFFFFU;
 80043c0:	4bc1      	ldr	r3, [pc, #772]	; (80046c8 <main+0x3b8>)
  DMA1->HIFCR = 0xFFFFFFFFU;
  DMA2->LIFCR = 0xFFFFFFFFU;
 80043c2:	49c2      	ldr	r1, [pc, #776]	; (80046cc <main+0x3bc>)
#if defined(__CORE_CM0_H_GENERIC) || defined(__CORE_CM0PLUS_H_GENERIC) ||   \
    defined(__CORE_CM23_H_GENERIC)
  NVIC->__IPR[_IP_IDX(n)] = (NVIC->__IPR[_IP_IDX(n)] & ~(0xFFU << _BIT_SHIFT(n))) |
                            (NVIC_PRIORITY_MASK(prio) << _BIT_SHIFT(n));
#else
  NVIC->__IPR[n] = NVIC_PRIORITY_MASK(prio);
 80043c4:	4ac2      	ldr	r2, [pc, #776]	; (80046d0 <main+0x3c0>)
  rccResetADC();
 80043c6:	4dc3      	ldr	r5, [pc, #780]	; (80046d4 <main+0x3c4>)
  dacp->state = DAC_STOP;
 80043c8:	4ec3      	ldr	r6, [pc, #780]	; (80046d8 <main+0x3c8>)
  sdObjectInit(&SD1, NULL, notify1);
 80043ca:	f8df a39c 	ldr.w	sl, [pc, #924]	; 8004768 <main+0x458>
  sdObjectInit(&SD2, NULL, notify2);
 80043ce:	f8df b39c 	ldr.w	fp, [pc, #924]	; 800476c <main+0x45c>
 *
 * @init
 */
void spiObjectInit(SPIDriver *spip) {

  spip->state           = SPI_STOP;
 80043d2:	f8df 839c 	ldr.w	r8, [pc, #924]	; 8004770 <main+0x460>
  DMA1->LIFCR = 0xFFFFFFFFU;
 80043d6:	f04f 37ff 	mov.w	r7, #4294967295
 80043da:	609f      	str	r7, [r3, #8]
  DMA1->HIFCR = 0xFFFFFFFFU;
 80043dc:	60df      	str	r7, [r3, #12]
  DMA2->LIFCR = 0xFFFFFFFFU;
 80043de:	608f      	str	r7, [r1, #8]
  DMA2->HIFCR = 0xFFFFFFFFU;
 80043e0:	60cf      	str	r7, [r1, #12]
 *
 * @init
 */
void adcObjectInit(ADCDriver *adcp) {

  adcp->state    = ADC_STOP;
 80043e2:	49be      	ldr	r1, [pc, #760]	; (80046dc <main+0x3cc>)
 80043e4:	2370      	movs	r3, #112	; 0x70
#endif
  NVIC->__ICPR[n >> 5U] = 1U << (n & 0x1FU);
 80043e6:	f04f 6080 	mov.w	r0, #67108864	; 0x4000000
  NVIC->__IPR[n] = NVIC_PRIORITY_MASK(prio);
 80043ea:	f882 331a 	strb.w	r3, [r2, #794]	; 0x31a
  adcp->config   = NULL;
  adcp->samples  = NULL;
 80043ee:	e9c1 4401 	strd	r4, r4, [r1, #4]
  adcp->depth    = 0;
  adcp->grpp     = NULL;
 80043f2:	e9c1 4403 	strd	r4, r4, [r1, #12]
#if ADC_USE_WAIT == TRUE
  adcp->thread   = NULL;
 80043f6:	614c      	str	r4, [r1, #20]
  NVIC->__ICPR[n >> 5U] = 1U << (n & 0x1FU);
 80043f8:	f8c2 0180 	str.w	r0, [r2, #384]	; 0x180
  NVIC->__ISER[n >> 5U] = 1U << (n & 0x1FU);
 80043fc:	6010      	str	r0, [r2, #0]
  NVIC->__IPR[n] = NVIC_PRIORITY_MASK(prio);
 80043fe:	f882 3336 	strb.w	r3, [r2, #822]	; 0x336
  NVIC->__ICPR[n >> 5U] = 1U << (n & 0x1FU);
 8004402:	f44f 0380 	mov.w	r3, #4194304	; 0x400000
 8004406:	f8c2 3184 	str.w	r3, [r2, #388]	; 0x184
 800440a:	2020      	movs	r0, #32
  NVIC->__ISER[n >> 5U] = 1U << (n & 0x1FU);
 800440c:	6053      	str	r3, [r2, #4]
  NVIC->__IPR[n] = NVIC_PRIORITY_MASK(prio);
 800440e:	23c0      	movs	r3, #192	; 0xc0
 8004410:	f882 3325 	strb.w	r3, [r2, #805]	; 0x325
  NVIC->__ICPR[n >> 5U] = 1U << (n & 0x1FU);
 8004414:	f8c2 0184 	str.w	r0, [r2, #388]	; 0x184
  NVIC->__ISER[n >> 5U] = 1U << (n & 0x1FU);
 8004418:	6050      	str	r0, [r2, #4]
  NVIC->__IPR[n] = NVIC_PRIORITY_MASK(prio);
 800441a:	f882 3326 	strb.w	r3, [r2, #806]	; 0x326
  NVIC->__ICPR[n >> 5U] = 1U << (n & 0x1FU);
 800441e:	2340      	movs	r3, #64	; 0x40
  adcp->state    = ADC_STOP;
 8004420:	f04f 0901 	mov.w	r9, #1
 8004424:	f8c2 3184 	str.w	r3, [r2, #388]	; 0x184
 * @init
 */
static inline void osalMutexObjectInit(mutex_t *mp) {

#if CH_CFG_USE_MUTEXES
  chMtxObjectInit(mp);
 8004428:	f101 0018 	add.w	r0, r1, #24
  NVIC->__ISER[n >> 5U] = 1U << (n & 0x1FU);
 800442c:	6053      	str	r3, [r2, #4]
 800442e:	f881 9000 	strb.w	r9, [r1]
 8004432:	f7fc fd55 	bl	8000ee0 <chMtxObjectInit>
 8004436:	6a6b      	ldr	r3, [r5, #36]	; 0x24
  ADCD1.dmastp  = NULL;
 8004438:	62cc      	str	r4, [r1, #44]	; 0x2c
  rccResetADC();
 800443a:	f443 7380 	orr.w	r3, r3, #256	; 0x100
 800443e:	626b      	str	r3, [r5, #36]	; 0x24
 8004440:	6a6b      	ldr	r3, [r5, #36]	; 0x24
 8004442:	f423 7380 	bic.w	r3, r3, #256	; 0x100
 8004446:	626b      	str	r3, [r5, #36]	; 0x24
 8004448:	6a6b      	ldr	r3, [r5, #36]	; 0x24
  NVIC->__IPR[n] = NVIC_PRIORITY_MASK(prio);
 800444a:	2060      	movs	r0, #96	; 0x60
  NVIC->__ICPR[n >> 5U] = 1U << (n & 0x1FU);
 800444c:	f44f 2380 	mov.w	r3, #262144	; 0x40000
  dacp->thread = NULL;
 8004450:	e9c6 4404 	strd	r4, r4, [r6, #16]
  NVIC->__IPR[n] = NVIC_PRIORITY_MASK(prio);
 8004454:	f882 0312 	strb.w	r0, [r2, #786]	; 0x312
  NVIC->__ICPR[n >> 5U] = 1U << (n & 0x1FU);
 8004458:	f8c2 3180 	str.w	r3, [r2, #384]	; 0x180
  NVIC->__ISER[n >> 5U] = 1U << (n & 0x1FU);
 800445c:	6013      	str	r3, [r2, #0]
  ADCD1.adc     = ADC1;
 800445e:	f103 4380 	add.w	r3, r3, #1073741824	; 0x40000000
 8004462:	f5a3 3338 	sub.w	r3, r3, #188416	; 0x2e000
 *
 * @init
 */
void i2cObjectInit(I2CDriver *i2cp) {

  i2cp->state  = I2C_STOP;
 8004466:	4a9e      	ldr	r2, [pc, #632]	; (80046e0 <main+0x3d0>)
 8004468:	628b      	str	r3, [r1, #40]	; 0x28
 800446a:	f106 0018 	add.w	r0, r6, #24
  ADCD1.dmamode = STM32_DMA_CR_CHSEL(ADC1_DMA_CHANNEL) |
 800446e:	4b9d      	ldr	r3, [pc, #628]	; (80046e4 <main+0x3d4>)
 8004470:	630b      	str	r3, [r1, #48]	; 0x30
  dacp->state = DAC_STOP;
 8004472:	f886 9000 	strb.w	r9, [r6]
  DACD1.params  = &dac1_ch1_params;
 8004476:	499c      	ldr	r1, [pc, #624]	; (80046e8 <main+0x3d8>)
 8004478:	f7fc fd32 	bl	8000ee0 <chMtxObjectInit>
  GPTD6.tim = STM32_TIM6;
 800447c:	4b9b      	ldr	r3, [pc, #620]	; (80046ec <main+0x3dc>)
 800447e:	62b1      	str	r1, [r6, #40]	; 0x28
 8004480:	f102 000c 	add.w	r0, r2, #12
 8004484:	499a      	ldr	r1, [pc, #616]	; (80046f0 <main+0x3e0>)
 8004486:	f882 9000 	strb.w	r9, [r2]
  i2cp->config = NULL;
 800448a:	6054      	str	r4, [r2, #4]
 800448c:	60d9      	str	r1, [r3, #12]
 *
 * @init
 */
void gptObjectInit(GPTDriver *gptp) {

  gptp->state  = GPT_STOP;
 800448e:	f883 9000 	strb.w	r9, [r3]
  sdObjectInit(&SD1, NULL, notify1);
 8004492:	4998      	ldr	r1, [pc, #608]	; (80046f4 <main+0x3e4>)
  gptp->config = NULL;
 8004494:	605c      	str	r4, [r3, #4]
  DACD1.dma = NULL;
 8004496:	62f4      	str	r4, [r6, #44]	; 0x2c
 8004498:	f7fc fd22 	bl	8000ee0 <chMtxObjectInit>
#endif /* STM32_I2C_USE_I2C1 */

#if STM32_I2C_USE_I2C2
  i2cObjectInit(&I2CD2);
  I2CD2.thread = NULL;
  I2CD2.i2c    = I2C2;
 800449c:	4b96      	ldr	r3, [pc, #600]	; (80046f8 <main+0x3e8>)
 800449e:	6353      	str	r3, [r2, #52]	; 0x34
 80044a0:	4650      	mov	r0, sl
  I2CD2.dmarx  = NULL;
  I2CD2.dmatx  = NULL;
 80044a2:	e9c2 440b 	strd	r4, r4, [r2, #44]	; 0x2c
  I2CD2.thread = NULL;
 80044a6:	61d4      	str	r4, [r2, #28]
 80044a8:	f7fc fc52 	bl	8000d50 <sdObjectInit.constprop.0>
  SD1.clock = STM32_PCLK2;
 80044ac:	4b93      	ldr	r3, [pc, #588]	; (80046fc <main+0x3ec>)
 80044ae:	4994      	ldr	r1, [pc, #592]	; (8004700 <main+0x3f0>)
  sdObjectInit(&SD2, NULL, notify2);
 80044b0:	4658      	mov	r0, fp
  SD1.clock = STM32_PCLK2;
 80044b2:	e9ca 131d 	strd	r1, r3, [sl, #116]	; 0x74
  sdObjectInit(&SD2, NULL, notify2);
 80044b6:	4993      	ldr	r1, [pc, #588]	; (8004704 <main+0x3f4>)
 80044b8:	f7fc fc4a 	bl	8000d50 <sdObjectInit.constprop.0>
  SD2.clock = STM32_PCLK1;
 80044bc:	4b92      	ldr	r3, [pc, #584]	; (8004708 <main+0x3f8>)
 80044be:	f8df c2b4 	ldr.w	ip, [pc, #692]	; 8004774 <main+0x464>
 80044c2:	f888 9000 	strb.w	r9, [r8]
 80044c6:	f108 000c 	add.w	r0, r8, #12
 80044ca:	e9cb c31d 	strd	ip, r3, [fp, #116]	; 0x74
  spip->config          = NULL;
#if SPI_USE_SYNCHRONIZATION == TRUE
  spip->sync_transfer   = NULL;
 80044ce:	e9c8 4401 	strd	r4, r4, [r8, #4]
 80044d2:	f7fc fd05 	bl	8000ee0 <chMtxObjectInit>
  ST_ENABLE_CLOCK();
 80044d6:	6c6b      	ldr	r3, [r5, #68]	; 0x44
  ST_ENABLE_STOP();
 80044d8:	498c      	ldr	r1, [pc, #560]	; (800470c <main+0x3fc>)
  ST_ENABLE_CLOCK();
 80044da:	f443 2380 	orr.w	r3, r3, #262144	; 0x40000

#if STM32_SPI_USE_SPI2
  spiObjectInit(&SPID2);
  SPID2.spi       = SPI2;
  SPID2.dmarx     = NULL;
  SPID2.dmatx     = NULL;
 80044de:	e9c8 4408 	strd	r4, r4, [r8, #32]
 80044e2:	646b      	str	r3, [r5, #68]	; 0x44
 80044e4:	6e6b      	ldr	r3, [r5, #100]	; 0x64
 80044e6:	f443 2380 	orr.w	r3, r3, #262144	; 0x40000
 80044ea:	666b      	str	r3, [r5, #100]	; 0x64
 80044ec:	6e6b      	ldr	r3, [r5, #100]	; 0x64
  ST_ENABLE_STOP();
 80044ee:	68ca      	ldr	r2, [r1, #12]
  STM32_ST_TIM->PSC    = (ST_CLOCK_SRC / OSAL_ST_FREQUENCY) - 1;
 80044f0:	4b87      	ldr	r3, [pc, #540]	; (8004710 <main+0x400>)
  ST_ENABLE_STOP();
 80044f2:	f442 2280 	orr.w	r2, r2, #262144	; 0x40000
 80044f6:	60ca      	str	r2, [r1, #12]
  STM32_ST_TIM->PSC    = (ST_CLOCK_SRC / OSAL_ST_FREQUENCY) - 1;
 80044f8:	f242 720f 	movw	r2, #9999	; 0x270f
 80044fc:	629a      	str	r2, [r3, #40]	; 0x28
  STM32_ST_TIM->ARR    = ST_ARR_INIT;
 80044fe:	f64f 72ff 	movw	r2, #65535	; 0xffff
 8004502:	62da      	str	r2, [r3, #44]	; 0x2c
  STM32_ST_TIM->CCMR1  = 0;
 8004504:	619c      	str	r4, [r3, #24]
  tmp->cumulative = (rttime_t)0;
 8004506:	2200      	movs	r2, #0
  STM32_ST_TIM->CCR[0] = 0;
 8004508:	635c      	str	r4, [r3, #52]	; 0x34
  STM32_ST_TIM->DIER   = 0;
 800450a:	60dc      	str	r4, [r3, #12]
  STM32_ST_TIM->CR2    = 0;
 800450c:	605c      	str	r4, [r3, #4]
  STM32_ST_TIM->EGR    = TIM_EGR_UG;
 800450e:	f8c3 9014 	str.w	r9, [r3, #20]
  STM32_ST_TIM->CR1    = TIM_CR1_CEN;
 8004512:	f8c3 9000 	str.w	r9, [r3]
 8004516:	2300      	movs	r3, #0
 8004518:	e9cd 2306 	strd	r2, r3, [sp, #24]
  SPID2.spi       = SPI2;
 800451c:	4b7d      	ldr	r3, [pc, #500]	; (8004714 <main+0x404>)
 800451e:	f8c8 301c 	str.w	r3, [r8, #28]
  SPID2.rxdmamode = STM32_DMA_CR_CHSEL(SPI2_RX_DMA_CHANNEL) |
 8004522:	4b7d      	ldr	r3, [pc, #500]	; (8004718 <main+0x408>)
 8004524:	f8c8 3028 	str.w	r3, [r8, #40]	; 0x28
  tmp->worst      = (rtcnt_t)0;
 8004528:	e9cd 7402 	strd	r7, r4, [sp, #8]
  tmp->n          = (ucnt_t)0;
 800452c:	e9cd 4404 	strd	r4, r4, [sp, #16]
  ch_system.state = ch_sys_initializing;
 8004530:	4f7a      	ldr	r7, [pc, #488]	; (800471c <main+0x40c>)
                    STM32_DMA_CR_PL(STM32_SPI_SPI2_DMA_PRIORITY) |
                    STM32_DMA_CR_DIR_P2M |
                    STM32_DMA_CR_TCIE |
                    STM32_DMA_CR_DMEIE |
                    STM32_DMA_CR_TEIE;
  SPID2.txdmamode = STM32_DMA_CR_CHSEL(SPI2_TX_DMA_CHANNEL) |
 8004532:	3330      	adds	r3, #48	; 0x30
}
 8004534:	2504      	movs	r5, #4
 8004536:	f887 9000 	strb.w	r9, [r7]
  time_measurement_t tm;

  /* Time Measurement subsystem calibration, it does a null measurement
     and calculates the call overhead which is subtracted to real
     measurements.*/
  tcp->offset = (rtcnt_t)0;
 800453a:	60bc      	str	r4, [r7, #8]
 800453c:	f8c8 302c 	str.w	r3, [r8, #44]	; 0x2c
  chTMObjectInit(&tm);
  i = TM_CALIBRATION_LOOP;
  do {
    chTMStartMeasurementX(&tm);
 8004540:	a802      	add	r0, sp, #8
 8004542:	f7fc fb5d 	bl	8000c00 <chTMStartMeasurementX>
    chTMStopMeasurementX(&tm);
 8004546:	f7fc fb63 	bl	8000c10 <chTMStopMeasurementX>
    i--;
  } while (i > 0U);
 800454a:	3d01      	subs	r5, #1
 800454c:	d1f8      	bne.n	8004540 <main+0x230>
  tcp->offset = tm.best;
 800454e:	9a02      	ldr	r2, [sp, #8]
  ch_memcore.basemem = __heap_base__;
 8004550:	4b73      	ldr	r3, [pc, #460]	; (8004720 <main+0x410>)
 8004552:	60ba      	str	r2, [r7, #8]
 8004554:	4a73      	ldr	r2, [pc, #460]	; (8004724 <main+0x414>)
 8004556:	601a      	str	r2, [r3, #0]
  ch_memcore.topmem  = __heap_end__;
 8004558:	4a73      	ldr	r2, [pc, #460]	; (8004728 <main+0x418>)
 800455a:	605a      	str	r2, [r3, #4]
 *
 * @notapi
 */
void __heap_init(void) {

  default_heap.provider = chCoreAllocAlignedWithOffset;
 800455c:	4b73      	ldr	r3, [pc, #460]	; (800472c <main+0x41c>)
 800455e:	4a74      	ldr	r2, [pc, #464]	; (8004730 <main+0x420>)
 8004560:	601a      	str	r2, [r3, #0]
  H_NEXT(&default_heap.header) = NULL;
  H_PAGES(&default_heap.header) = 0;
#if (CH_CFG_USE_MUTEXES == TRUE) || defined(__DOXYGEN__)
  chMtxObjectInit(&default_heap.mtx);
 8004562:	f103 000c 	add.w	r0, r3, #12
  H_PAGES(&default_heap.header) = 0;
 8004566:	e9c3 5501 	strd	r5, r5, [r3, #4]
  chMtxObjectInit(&default_heap.mtx);
 800456a:	f7fc fcb9 	bl	8000ee0 <chMtxObjectInit>
 * @init
 */
void __factory_init(void) {

#if (CH_CFG_USE_MUTEXES == TRUE) || defined(__DOXYGEN__)
  chMtxObjectInit(&ch_factory.mtx);
 800456e:	4871      	ldr	r0, [pc, #452]	; (8004734 <main+0x424>)
  core_id = port_get_core_id();
#else
  core_id = 0U;
#endif
  chDbgAssert(ch_system.instances[core_id] == NULL, "instance already registered");
  ch_system.instances[core_id] = oip;
 8004570:	4c71      	ldr	r4, [pc, #452]	; (8004738 <main+0x428>)
 8004572:	f7fc fcb5 	bl	8000ee0 <chMtxObjectInit>
  dlp->next = (dyn_element_t *)dlp;
 8004576:	f100 0310 	add.w	r3, r0, #16
 800457a:	6103      	str	r3, [r0, #16]
             (align >= PORT_NATURAL_ALIGN) &&
             MEM_IS_VALID_ALIGNMENT(align));

  mp->next = NULL;
  mp->object_size = size;
  mp->align = align;
 800457c:	2214      	movs	r2, #20
 800457e:	2304      	movs	r3, #4
 8004580:	e9c0 2306 	strd	r2, r3, [r0, #24]
 8004584:	6343      	str	r3, [r0, #52]	; 0x34
 8004586:	f100 033c 	add.w	r3, r0, #60	; 0x3c
 800458a:	63c3      	str	r3, [r0, #60]	; 0x3c
 800458c:	f100 0340 	add.w	r3, r0, #64	; 0x40
 8004590:	6403      	str	r3, [r0, #64]	; 0x40
 8004592:	f100 0344 	add.w	r3, r0, #68	; 0x44
 8004596:	6443      	str	r3, [r0, #68]	; 0x44
  mp->provider = provider;
 8004598:	4b68      	ldr	r3, [pc, #416]	; (800473c <main+0x42c>)
 800459a:	6203      	str	r3, [r0, #32]
 800459c:	6383      	str	r3, [r0, #56]	; 0x38

  /* Core associated to this instance.*/
  oip->core_id = core_id;

  /* Keeping a reference to the configuration data.*/
  oip->config = oicp;
 800459e:	4b68      	ldr	r3, [pc, #416]	; (8004740 <main+0x430>)
 80045a0:	63a3      	str	r3, [r4, #56]	; 0x38
 80045a2:	f100 0324 	add.w	r3, r0, #36	; 0x24
 80045a6:	6243      	str	r3, [r0, #36]	; 0x24
 80045a8:	f100 0328 	add.w	r3, r0, #40	; 0x28
 80045ac:	6283      	str	r3, [r0, #40]	; 0x28
  mp->object_size = size;
 80045ae:	231c      	movs	r3, #28
  mp->next = NULL;
 80045b0:	6145      	str	r5, [r0, #20]
 80045b2:	62c5      	str	r5, [r0, #44]	; 0x2c
  ch_system.instances[core_id] = oip;
 80045b4:	607c      	str	r4, [r7, #4]
  oip->core_id = core_id;
 80045b6:	6325      	str	r5, [r4, #48]	; 0x30
  mp->object_size = size;
 80045b8:	6303      	str	r3, [r0, #48]	; 0x30
 80045ba:	f04f 0a30 	mov.w	sl, #48	; 0x30
 80045be:	f38a 8811 	msr	BASEPRI, sl
  __ASM volatile ("cpsie i" : : : "memory");
 80045c2:	b662      	cpsie	i
  pqp->prio = (tprio_t)0;
 80045c4:	e9c4 4501 	strd	r4, r5, [r4, #4]
  tp->epending          = (eventmask_t)0;
 80045c8:	e9c4 551d 	strd	r5, r5, [r4, #116]	; 0x74
__STATIC_INLINE void __NVIC_SetPriorityGrouping(uint32_t PriorityGroup)
{
  uint32_t reg_value;
  uint32_t PriorityGroupTmp = (PriorityGroup & (uint32_t)0x07UL);             /* only values 0..7 are used          */

  reg_value  =  SCB->AIRCR;                                                   /* read old register configuration    */
 80045cc:	4b5d      	ldr	r3, [pc, #372]	; (8004744 <main+0x434>)
 *
 * @notapi
 */
static inline void __rfcu_object_init(rfcu_t *rfcup) {

  rfcup->mask = (rfcu_mask_t)0;
 80045ce:	6365      	str	r5, [r4, #52]	; 0x34

  sdp->panic_msg = NULL;

#if CH_DBG_SYSTEM_STATE_CHECK == TRUE
  /* The initial state is assumed to be within a critical zone.*/
  sdp->isr_cnt  = (cnt_t)0;
 80045d0:	f8c4 5088 	str.w	r5, [r4, #136]	; 0x88
 80045d4:	68d9      	ldr	r1, [r3, #12]

  ch_dlist_init(&vtlp->dlist);
#if CH_CFG_ST_TIMEDELTA == 0
  vtlp->systime = (systime_t)0;
#else /* CH_CFG_ST_TIMEDELTA > 0 */
  vtlp->lasttime = (systime_t)0;
 80045d6:	83a5      	strh	r5, [r4, #28]
  reg_value &= ~((uint32_t)(SCB_AIRCR_VECTKEY_Msk | SCB_AIRCR_PRIGROUP_Msk)); /* clear bits to change               */
 80045d8:	f64f 02ff 	movw	r2, #63743	; 0xf8ff
 80045dc:	4011      	ands	r1, r2
  reg_value  =  (reg_value                                   |
 80045de:	4a5a      	ldr	r2, [pc, #360]	; (8004748 <main+0x438>)
  tp->owner             = oip;
 80045e0:	6564      	str	r4, [r4, #84]	; 0x54
 80045e2:	430a      	orrs	r2, r1
                ((uint32_t)0x5FAUL << SCB_AIRCR_VECTKEY_Pos) |
                (PriorityGroupTmp << SCB_AIRCR_PRIGROUP_Pos)  );              /* Insert write key and priority group */
  SCB->AIRCR =  reg_value;
 80045e4:	60da      	str	r2, [r3, #12]
  CoreDebug->DEMCR |= CoreDebug_DEMCR_TRCENA_Msk;
 80045e6:	f8d3 20fc 	ldr.w	r2, [r3, #252]	; 0xfc
  DWT->CTRL |= DWT_CTRL_CYCCNTENA_Msk;
 80045ea:	4958      	ldr	r1, [pc, #352]	; (800474c <main+0x43c>)
 80045ec:	4848      	ldr	r0, [pc, #288]	; (8004710 <main+0x400>)
  CoreDebug->DEMCR |= CoreDebug_DEMCR_TRCENA_Msk;
 80045ee:	f042 7280 	orr.w	r2, r2, #16777216	; 0x1000000
 80045f2:	f8c3 20fc 	str.w	r2, [r3, #252]	; 0xfc
  DWT->CTRL |= DWT_CTRL_CYCCNTENA_Msk;
 80045f6:	680a      	ldr	r2, [r1, #0]
  {
    NVIC->IP[((uint32_t)IRQn)]               = (uint8_t)((priority << (8U - __NVIC_PRIO_BITS)) & (uint32_t)0xFFUL);
  }
  else
  {
    SCB->SHP[(((uint32_t)IRQn) & 0xFUL)-4UL] = (uint8_t)((priority << (8U - __NVIC_PRIO_BITS)) & (uint32_t)0xFFUL);
 80045f8:	f04f 0b20 	mov.w	fp, #32
 80045fc:	f042 0201 	orr.w	r2, r2, #1
 8004600:	600a      	str	r2, [r1, #0]
 8004602:	f883 b01f 	strb.w	fp, [r3, #31]
  dlhp->next  = dlhp;
 8004606:	f104 0110 	add.w	r1, r4, #16
 800460a:	f883 a022 	strb.w	sl, [r3, #34]	; 0x22
 800460e:	6a43      	ldr	r3, [r0, #36]	; 0x24
 8004610:	9301      	str	r3, [sp, #4]
  dlhp->prev  = dlhp;
 8004612:	e9c4 1104 	strd	r1, r1, [r4, #16]
  tp->hdr.pqueue.prio   = prio;
 8004616:	2180      	movs	r1, #128	; 0x80
 8004618:	6461      	str	r1, [r4, #68]	; 0x44
  tp->realprio          = prio;
 800461a:	67e1      	str	r1, [r4, #124]	; 0x7c
  p->prev       = qp->prev;
 800461c:	f104 0128 	add.w	r1, r4, #40	; 0x28
  tp->wabase = tdp->wbase;
 8004620:	4b4b      	ldr	r3, [pc, #300]	; (8004750 <main+0x440>)
 8004622:	6521      	str	r1, [r4, #80]	; 0x50
  qp->next = qp;
 8004624:	f104 016c 	add.w	r1, r4, #108	; 0x6c
  qp->prev = qp;
 8004628:	e9c4 111b 	strd	r1, r1, [r4, #108]	; 0x6c
  p->prev->next = p;
 800462c:	f104 004c 	add.w	r0, r4, #76	; 0x4c
  tp->name              = name;
 8004630:	4948      	ldr	r1, [pc, #288]	; (8004754 <main+0x444>)
#endif /* CH_CFG_ST_TIMEDELTA > 0 */
#if CH_CFG_USE_TIMESTAMP == TRUE
  vtlp->laststamp = (systimestamp_t)chVTGetSystemTimeX();
 8004632:	f8bd 8004 	ldrh.w	r8, [sp, #4]
 8004636:	62a0      	str	r0, [r4, #40]	; 0x28
  dlhp->delta = (sysinterval_t)-1;
 8004638:	f04f 3cff 	mov.w	ip, #4294967295
  sdp->lock_cnt = (cnt_t)1;
 800463c:	2201      	movs	r2, #1
  return chSchReadyI(chThdCreateSuspendedI(tdp));
 800463e:	f503 70dc 	add.w	r0, r3, #440	; 0x1b8
  tp->name              = name;
 8004642:	65a1      	str	r1, [r4, #88]	; 0x58
 8004644:	f8c4 c018 	str.w	ip, [r4, #24]
  oip->rlist.current = __thd_object_init(oip, &oip->mainthread,
                                         "idle", IDLEPRIO);
#endif

#if (CH_DBG_ENABLE_STACK_CHECK == TRUE) || (CH_CFG_USE_DYNAMIC == TRUE)
  oip->rlist.current->wabase = oicp->mainthread_base;
 8004648:	4943      	ldr	r1, [pc, #268]	; (8004758 <main+0x448>)
 800464a:	f8c4 208c 	str.w	r2, [r4, #140]	; 0x8c
  lp->next = lp;
 800464e:	f104 0c68 	add.w	ip, r4, #104	; 0x68
 8004652:	46a9      	mov	r9, r5
 8004654:	f8c4 c068 	str.w	ip, [r4, #104]	; 0x68
  pqp->next = pqp;
 8004658:	6024      	str	r4, [r4, #0]
 800465a:	e9c4 8908 	strd	r8, r9, [r4, #32]
 800465e:	65e1      	str	r1, [r4, #92]	; 0x5c
  PORT_SETUP_CONTEXT(tp, tdp->wbase, tp, tdp->funcp, tdp->arg);
 8004660:	f1a0 0164 	sub.w	r1, r0, #100	; 0x64
 8004664:	f8c3 11c4 	str.w	r1, [r3, #452]	; 0x1c4
 8004668:	493c      	ldr	r1, [pc, #240]	; (800475c <main+0x44c>)
 800466a:	f8c3 1194 	str.w	r1, [r3, #404]	; 0x194
 800466e:	493c      	ldr	r1, [pc, #240]	; (8004760 <main+0x450>)
 8004670:	f8c3 11b4 	str.w	r1, [r3, #436]	; 0x1b4
  tp->name              = name;
 8004674:	493b      	ldr	r1, [pc, #236]	; (8004764 <main+0x454>)
 8004676:	f8c3 11d4 	str.w	r1, [r3, #468]	; 0x1d4
  p->next       = qp;
 800467a:	f104 0128 	add.w	r1, r4, #40	; 0x28
 800467e:	f8c3 11c8 	str.w	r1, [r3, #456]	; 0x1c8
#endif

  /* Setting up the caller as current thread.*/
  oip->rlist.current->state = CH_STATE_CURRENT;
 8004682:	f8a4 2060 	strh.w	r2, [r4, #96]	; 0x60
  p->prev       = qp->prev;
 8004686:	f104 014c 	add.w	r1, r4, #76	; 0x4c
  tp->refs              = (trefs_t)1;
 800468a:	f884 2062 	strb.w	r2, [r4, #98]	; 0x62
  tp->hdr.pqueue.prio   = prio;
 800468e:	f8c3 21c0 	str.w	r2, [r3, #448]	; 0x1c0
  tp->realprio          = prio;
 8004692:	f8c3 21f8 	str.w	r2, [r3, #504]	; 0x1f8
  tp->refs              = (trefs_t)1;
 8004696:	f883 21de 	strb.w	r2, [r3, #478]	; 0x1de
  tp->state             = CH_STATE_WTSTART;
 800469a:	f04f 0202 	mov.w	r2, #2
  qp->next = qp;
 800469e:	f503 7ef4 	add.w	lr, r3, #488	; 0x1e8
  p->prev       = qp->prev;
 80046a2:	f8c3 11cc 	str.w	r1, [r3, #460]	; 0x1cc
 80046a6:	f8a3 21dc 	strh.w	r2, [r3, #476]	; 0x1dc
  lp->next = lp;
 80046aa:	f100 012c 	add.w	r1, r0, #44	; 0x2c
  p->prev->next = p;
 80046ae:	f100 0210 	add.w	r2, r0, #16
  qp->prev = qp;
 80046b2:	e9c3 ee7a 	strd	lr, lr, [r3, #488]	; 0x1e8
  oip->rlist.current = __thd_object_init(oip, &oip->mainthread,
 80046b6:	f104 0c3c 	add.w	ip, r4, #60	; 0x3c
  lp->next = lp;
 80046ba:	f8c3 11e4 	str.w	r1, [r3, #484]	; 0x1e4
  tp->epending          = (eventmask_t)0;
 80046be:	e9c3 557c 	strd	r5, r5, [r3, #496]	; 0x1f0
  PORT_SETUP_CONTEXT(tp, tdp->wbase, tp, tdp->funcp, tdp->arg);
 80046c2:	f8c3 5198 	str.w	r5, [r3, #408]	; 0x198
 80046c6:	e057      	b.n	8004778 <main+0x468>
 80046c8:	40026000 	.word	0x40026000
 80046cc:	40026400 	.word	0x40026400
 80046d0:	e000e100 	.word	0xe000e100
 80046d4:	40023800 	.word	0x40023800
 80046d8:	2000083c 	.word	0x2000083c
 80046dc:	20000808 	.word	0x20000808
 80046e0:	2000087c 	.word	0x2000087c
 80046e4:	00022c16 	.word	0x00022c16
 80046e8:	08004f84 	.word	0x08004f84
 80046ec:	2000086c 	.word	0x2000086c
 80046f0:	40001000 	.word	0x40001000
 80046f4:	08000bb1 	.word	0x08000bb1
 80046f8:	40005800 	.word	0x40005800
 80046fc:	05f5e100 	.word	0x05f5e100
 8004700:	40011000 	.word	0x40011000
 8004704:	08000bc1 	.word	0x08000bc1
 8004708:	02faf080 	.word	0x02faf080
 800470c:	e0042000 	.word	0xe0042000
 8004710:	40014800 	.word	0x40014800
 8004714:	40003800 	.word	0x40003800
 8004718:	00010016 	.word	0x00010016
 800471c:	20000cd0 	.word	0x20000cd0
 8004720:	20000cc8 	.word	0x20000cc8
 8004724:	20002020 	.word	0x20002020
 8004728:	20008000 	.word	0x20008000
 800472c:	20000cdc 	.word	0x20000cdc
 8004730:	08000fa1 	.word	0x08000fa1
 8004734:	20000c80 	.word	0x20000c80
 8004738:	200009f0 	.word	0x200009f0
 800473c:	08001021 	.word	0x08001021
 8004740:	08004f44 	.word	0x08004f44
 8004744:	e000ed00 	.word	0xe000ed00
 8004748:	05fa0300 	.word	0x05fa0300
 800474c:	e0001000 	.word	0xe0001000
 8004750:	20000a80 	.word	0x20000a80
 8004754:	08004f58 	.word	0x08004f58
 8004758:	20000400 	.word	0x20000400
 800475c:	08000bf1 	.word	0x08000bf1
 8004760:	0800031d 	.word	0x0800031d
 8004764:	08004de4 	.word	0x08004de4
 8004768:	200008b4 	.word	0x200008b4
 800476c:	20000934 	.word	0x20000934
 8004770:	200009b4 	.word	0x200009b4
 8004774:	40004400 	.word	0x40004400
  tp->owner             = oip;
 8004778:	f8c3 41d0 	str.w	r4, [r3, #464]	; 0x1d0
  p->prev->next = p;
 800477c:	64e2      	str	r2, [r4, #76]	; 0x4c
  qp->prev      = p;
 800477e:	62e2      	str	r2, [r4, #44]	; 0x2c
  sdp->panic_msg = NULL;
 8004780:	f8c4 5084 	str.w	r5, [r4, #132]	; 0x84
  tp->wabase = tdp->wbase;
 8004784:	f8c3 31d8 	str.w	r3, [r3, #472]	; 0x1d8
 8004788:	f8c4 c00c 	str.w	ip, [r4, #12]
  return chSchReadyI(chThdCreateSuspendedI(tdp));
 800478c:	f7fc fcc0 	bl	8001110 <chSchReadyI.isra.0>
  ch_system.state = ch_sys_running;
 8004790:	f04f 0302 	mov.w	r3, #2
 8004794:	703b      	strb	r3, [r7, #0]
 8004796:	f7fd fa7b 	bl	8001c90 <__dbg_check_unlock>
  __ASM volatile ("MSR basepri, %0" : : "r" (basePri) : "memory");
 800479a:	f385 8811 	msr	BASEPRI, r5
   *   RTOS is active.
   */
  halInit();
  chSysInit();

  chMtxObjectInit(&mutex_bsp2);
 800479e:	483e      	ldr	r0, [pc, #248]	; (8004898 <main+0x588>)
 80047a0:	f7fc fb9e 	bl	8000ee0 <chMtxObjectInit>
  palSetPadMode(GPIOA, 5, PAL_MODE_INPUT_ANALOG);
 80047a4:	2103      	movs	r1, #3
 80047a6:	4658      	mov	r0, fp
 80047a8:	f7fc fa5a 	bl	8000c60 <_pal_lld_setgroupmode.constprop.0>
 80047ac:	f38a 8811 	msr	BASEPRI, sl
  __dbg_check_lock();
 80047b0:	f7fd fa86 	bl	8001cc0 <__dbg_check_lock>
  if (dacp->state == DAC_STOP) {
 80047b4:	7833      	ldrb	r3, [r6, #0]
  dacp->config = config;
 80047b6:	4a39      	ldr	r2, [pc, #228]	; (800489c <main+0x58c>)
 80047b8:	6132      	str	r2, [r6, #16]
 80047ba:	2b01      	cmp	r3, #1
 80047bc:	d054      	beq.n	8004868 <main+0x558>
    dacp->state = DAC_READY;
 80047be:	2302      	movs	r3, #2
 80047c0:	7033      	strb	r3, [r6, #0]
  __dbg_check_unlock();
 80047c2:	f7fd fa65 	bl	8001c90 <__dbg_check_unlock>
 80047c6:	2300      	movs	r3, #0
 80047c8:	f383 8811 	msr	BASEPRI, r3
  dac_lld_put_channel(dacp, channel, sample);
 80047cc:	f640 7031 	movw	r0, #3889	; 0xf31
 80047d0:	f7fc fa9e 	bl	8000d10 <dac_lld_put_channel.constprop.0>
  chThdSleepMilliseconds(100); //wait for opamp input to settle
 80047d4:	f44f 707a 	mov.w	r0, #1000	; 0x3e8
 80047d8:	f7fd f912 	bl	8001a00 <chThdSleep>
  palSetPad(GPIOA, GPIOA_heater_enable);
 80047dc:	4b30      	ldr	r3, [pc, #192]	; (80048a0 <main+0x590>)

  /*
   * Create threads
   */

  chThdCreateStatic(waThdBlinker, sizeof(waThdBlinker), NORMALPRIO, ThdBlinker, NULL);
 80047de:	4a31      	ldr	r2, [pc, #196]	; (80048a4 <main+0x594>)
 80047e0:	f44f 5080 	mov.w	r0, #4096	; 0x1000
 80047e4:	8318      	strh	r0, [r3, #24]
 80047e6:	f44f 7110 	mov.w	r1, #576	; 0x240
 80047ea:	482f      	ldr	r0, [pc, #188]	; (80048a8 <main+0x598>)
 80047ec:	f7fd fa80 	bl	8001cf0 <chThdCreateStatic.constprop.0.isra.0>
  chThdCreateStatic(waThdSerial, sizeof(waThdSerial), NORMALPRIO, ThdSerial, NULL);
 80047f0:	4a2e      	ldr	r2, [pc, #184]	; (80048ac <main+0x59c>)
 80047f2:	482f      	ldr	r0, [pc, #188]	; (80048b0 <main+0x5a0>)
 80047f4:	f44f 6119 	mov.w	r1, #2448	; 0x990
 80047f8:	f7fd fa7a 	bl	8001cf0 <chThdCreateStatic.constprop.0.isra.0>
  chThdCreateStatic(waThdBeeper, sizeof(waThdBeeper), NORMALPRIO, ThdBeeper, NULL);
 80047fc:	4a2d      	ldr	r2, [pc, #180]	; (80048b4 <main+0x5a4>)
 80047fe:	482e      	ldr	r0, [pc, #184]	; (80048b8 <main+0x5a8>)
 8004800:	f44f 7110 	mov.w	r1, #576	; 0x240
 8004804:	f7fd fa74 	bl	8001cf0 <chThdCreateStatic.constprop.0.isra.0>
  chThdCreateStatic(waThdGNSS, sizeof(waThdGNSS), NORMALPRIO, ThdGNSS, NULL);
 8004808:	4a2c      	ldr	r2, [pc, #176]	; (80048bc <main+0x5ac>)
 800480a:	482d      	ldr	r0, [pc, #180]	; (80048c0 <main+0x5b0>)
 800480c:	f44f 7110 	mov.w	r1, #576	; 0x240
 8004810:	f7fd fa6e 	bl	8001cf0 <chThdCreateStatic.constprop.0.isra.0>
  chThdCreateStatic(waThdCntr, sizeof(waThdCntr), NORMALPRIO, ThdCntr, NULL);
 8004814:	4a2b      	ldr	r2, [pc, #172]	; (80048c4 <main+0x5b4>)
 8004816:	482c      	ldr	r0, [pc, #176]	; (80048c8 <main+0x5b8>)
 8004818:	f44f 7110 	mov.w	r1, #576	; 0x240
 800481c:	f7fd fa68 	bl	8001cf0 <chThdCreateStatic.constprop.0.isra.0>

  /*
   * Normal main() thread activity, in this demo it does nothing except
   * sleeping in a loop and check the button state.
   */
  myprintf("Thdmain\n");
 8004820:	482a      	ldr	r0, [pc, #168]	; (80048cc <main+0x5bc>)
 8004822:	f7fe fcdd 	bl	80031e0 <myprintf>
 8004826:	2530      	movs	r5, #48	; 0x30
  oip->dbg.lock_cnt = (cnt_t)1;
 8004828:	2601      	movs	r6, #1
 800482a:	f385 8811 	msr	BASEPRI, r5
  if (unlikely((oip->dbg.isr_cnt != (cnt_t)0) ||
 800482e:	e9d4 3222 	ldrd	r3, r2, [r4, #136]	; 0x88
 8004832:	4313      	orrs	r3, r2
 8004834:	d112      	bne.n	800485c <main+0x54c>
  (void) chSchGoSleepTimeoutS(CH_STATE_SLEEPING, ticks);
 8004836:	f241 3188 	movw	r1, #5000	; 0x1388
 800483a:	2008      	movs	r0, #8
  oip->dbg.lock_cnt = (cnt_t)1;
 800483c:	f8c4 608c 	str.w	r6, [r4, #140]	; 0x8c
 8004840:	f7fc fe16 	bl	8001470 <chSchGoSleepTimeoutS>
  if (unlikely((oip->dbg.isr_cnt != (cnt_t)0) ||
 8004844:	f8d4 3088 	ldr.w	r3, [r4, #136]	; 0x88
 8004848:	b95b      	cbnz	r3, 8004862 <main+0x552>
 800484a:	f8d4 208c 	ldr.w	r2, [r4, #140]	; 0x8c
 800484e:	2a00      	cmp	r2, #0
 8004850:	dd07      	ble.n	8004862 <main+0x552>
  oip->dbg.lock_cnt = (cnt_t)0;
 8004852:	f8c4 308c 	str.w	r3, [r4, #140]	; 0x8c
 8004856:	f383 8811 	msr	BASEPRI, r3
}
 800485a:	e7e6      	b.n	800482a <main+0x51a>
    chSysHalt("SV#4");
 800485c:	481c      	ldr	r0, [pc, #112]	; (80048d0 <main+0x5c0>)
 800485e:	f7fc f9b7 	bl	8000bd0 <chSysHalt>
    chSysHalt("SV#5");
 8004862:	481c      	ldr	r0, [pc, #112]	; (80048d4 <main+0x5c4>)
 8004864:	f7fc f9b4 	bl	8000bd0 <chSysHalt>
      rccEnableDAC1(true);
 8004868:	4a1b      	ldr	r2, [pc, #108]	; (80048d8 <main+0x5c8>)
 800486a:	6c11      	ldr	r1, [r2, #64]	; 0x40
 800486c:	f041 5100 	orr.w	r1, r1, #536870912	; 0x20000000
 8004870:	6411      	str	r1, [r2, #64]	; 0x40
 8004872:	6e11      	ldr	r1, [r2, #96]	; 0x60
 8004874:	f041 5100 	orr.w	r1, r1, #536870912	; 0x20000000
 8004878:	6611      	str	r1, [r2, #96]	; 0x60
      cr = dacp->params->dac->CR;
 800487a:	6ab1      	ldr	r1, [r6, #40]	; 0x28
      rccEnableDAC1(true);
 800487c:	6e12      	ldr	r2, [r2, #96]	; 0x60
      cr = dacp->params->dac->CR;
 800487e:	6808      	ldr	r0, [r1, #0]
      cr |= (DAC_CR_EN1 | dacp->config->cr) << dacp->params->regshift;
 8004880:	e9d1 2502 	ldrd	r2, r5, [r1, #8]
 8004884:	4093      	lsls	r3, r2
      cr = dacp->params->dac->CR;
 8004886:	6802      	ldr	r2, [r0, #0]
      cr &= dacp->params->regmask;
 8004888:	402a      	ands	r2, r5
      cr |= (DAC_CR_EN1 | dacp->config->cr) << dacp->params->regshift;
 800488a:	4313      	orrs	r3, r2
      dacp->params->dac->CR = cr;
 800488c:	6003      	str	r3, [r0, #0]
      dac_lld_put_channel(dacp, channel, dacp->config->init);
 800488e:	f640 70ff 	movw	r0, #4095	; 0xfff
 8004892:	f7fc fa3d 	bl	8000d10 <dac_lld_put_channel.constprop.0>
 8004896:	e792      	b.n	80047be <main+0x4ae>
 8004898:	20000d7c 	.word	0x20000d7c
 800489c:	08004fa0 	.word	0x08004fa0
 80048a0:	40020000 	.word	0x40020000
 80048a4:	08003a51 	.word	0x08003a51
 80048a8:	20000fd0 	.word	0x20000fd0
 80048ac:	080039a1 	.word	0x080039a1
 80048b0:	20001690 	.word	0x20001690
 80048b4:	08003d61 	.word	0x08003d61
 80048b8:	20000d90 	.word	0x20000d90
 80048bc:	08003d21 	.word	0x08003d21
 80048c0:	20001450 	.word	0x20001450
 80048c4:	08003e71 	.word	0x08003e71
 80048c8:	20001210 	.word	0x20001210
 80048cc:	08004dec 	.word	0x08004dec
 80048d0:	08004c98 	.word	0x08004c98
 80048d4:	08004cc0 	.word	0x08004cc0
 80048d8:	40023800 	.word	0x40023800

080048dc <memset>:
 80048dc:	0783      	lsls	r3, r0, #30
 80048de:	b530      	push	{r4, r5, lr}
 80048e0:	d048      	beq.n	8004974 <memset+0x98>
 80048e2:	1e54      	subs	r4, r2, #1
 80048e4:	2a00      	cmp	r2, #0
 80048e6:	d03f      	beq.n	8004968 <memset+0x8c>
 80048e8:	b2ca      	uxtb	r2, r1
 80048ea:	4603      	mov	r3, r0
 80048ec:	e001      	b.n	80048f2 <memset+0x16>
 80048ee:	3c01      	subs	r4, #1
 80048f0:	d33a      	bcc.n	8004968 <memset+0x8c>
 80048f2:	f803 2b01 	strb.w	r2, [r3], #1
 80048f6:	079d      	lsls	r5, r3, #30
 80048f8:	d1f9      	bne.n	80048ee <memset+0x12>
 80048fa:	2c03      	cmp	r4, #3
 80048fc:	d92d      	bls.n	800495a <memset+0x7e>
 80048fe:	b2cd      	uxtb	r5, r1
 8004900:	ea45 2505 	orr.w	r5, r5, r5, lsl #8
 8004904:	2c0f      	cmp	r4, #15
 8004906:	ea45 4505 	orr.w	r5, r5, r5, lsl #16
 800490a:	d936      	bls.n	800497a <memset+0x9e>
 800490c:	f1a4 0210 	sub.w	r2, r4, #16
 8004910:	f022 0c0f 	bic.w	ip, r2, #15
 8004914:	f103 0e20 	add.w	lr, r3, #32
 8004918:	44e6      	add	lr, ip
 800491a:	ea4f 1c12 	mov.w	ip, r2, lsr #4
 800491e:	f103 0210 	add.w	r2, r3, #16
 8004922:	e942 5504 	strd	r5, r5, [r2, #-16]
 8004926:	e942 5502 	strd	r5, r5, [r2, #-8]
 800492a:	3210      	adds	r2, #16
 800492c:	4572      	cmp	r2, lr
 800492e:	d1f8      	bne.n	8004922 <memset+0x46>
 8004930:	f10c 0201 	add.w	r2, ip, #1
 8004934:	f014 0f0c 	tst.w	r4, #12
 8004938:	eb03 1202 	add.w	r2, r3, r2, lsl #4
 800493c:	f004 0c0f 	and.w	ip, r4, #15
 8004940:	d013      	beq.n	800496a <memset+0x8e>
 8004942:	f1ac 0304 	sub.w	r3, ip, #4
 8004946:	f023 0303 	bic.w	r3, r3, #3
 800494a:	3304      	adds	r3, #4
 800494c:	4413      	add	r3, r2
 800494e:	f842 5b04 	str.w	r5, [r2], #4
 8004952:	4293      	cmp	r3, r2
 8004954:	d1fb      	bne.n	800494e <memset+0x72>
 8004956:	f00c 0403 	and.w	r4, ip, #3
 800495a:	b12c      	cbz	r4, 8004968 <memset+0x8c>
 800495c:	b2c9      	uxtb	r1, r1
 800495e:	441c      	add	r4, r3
 8004960:	f803 1b01 	strb.w	r1, [r3], #1
 8004964:	429c      	cmp	r4, r3
 8004966:	d1fb      	bne.n	8004960 <memset+0x84>
 8004968:	bd30      	pop	{r4, r5, pc}
 800496a:	4664      	mov	r4, ip
 800496c:	4613      	mov	r3, r2
 800496e:	2c00      	cmp	r4, #0
 8004970:	d1f4      	bne.n	800495c <memset+0x80>
 8004972:	e7f9      	b.n	8004968 <memset+0x8c>
 8004974:	4603      	mov	r3, r0
 8004976:	4614      	mov	r4, r2
 8004978:	e7bf      	b.n	80048fa <memset+0x1e>
 800497a:	461a      	mov	r2, r3
 800497c:	46a4      	mov	ip, r4
 800497e:	e7e0      	b.n	8004942 <memset+0x66>

08004980 <__aeabi_f2ulz>:
 8004980:	b5d0      	push	{r4, r6, r7, lr}
 8004982:	f7fc f807 	bl	8000994 <__aeabi_f2d>
 8004986:	4b0c      	ldr	r3, [pc, #48]	; (80049b8 <__aeabi_f2ulz+0x38>)
 8004988:	2200      	movs	r2, #0
 800498a:	4606      	mov	r6, r0
 800498c:	460f      	mov	r7, r1
 800498e:	f7fb fd73 	bl	8000478 <__aeabi_dmul>
 8004992:	f7fc f8e9 	bl	8000b68 <__aeabi_d2uiz>
 8004996:	4604      	mov	r4, r0
 8004998:	f7fb ffda 	bl	8000950 <__aeabi_ui2d>
 800499c:	4b07      	ldr	r3, [pc, #28]	; (80049bc <__aeabi_f2ulz+0x3c>)
 800499e:	2200      	movs	r2, #0
 80049a0:	f7fb fd6a 	bl	8000478 <__aeabi_dmul>
 80049a4:	4602      	mov	r2, r0
 80049a6:	460b      	mov	r3, r1
 80049a8:	4630      	mov	r0, r6
 80049aa:	4639      	mov	r1, r7
 80049ac:	f7fb fe92 	bl	80006d4 <__aeabi_dsub>
 80049b0:	f7fc f8da 	bl	8000b68 <__aeabi_d2uiz>
 80049b4:	4621      	mov	r1, r4
 80049b6:	bdd0      	pop	{r4, r6, r7, pc}
 80049b8:	3df00000 	.word	0x3df00000
 80049bc:	41f00000 	.word	0x41f00000

080049c0 <__udivmoddi4>:
 80049c0:	e92d 47f0 	stmdb	sp!, {r4, r5, r6, r7, r8, r9, sl, lr}
 80049c4:	9e08      	ldr	r6, [sp, #32]
 80049c6:	460d      	mov	r5, r1
 80049c8:	4604      	mov	r4, r0
 80049ca:	460f      	mov	r7, r1
 80049cc:	2b00      	cmp	r3, #0
 80049ce:	d14a      	bne.n	8004a66 <__udivmoddi4+0xa6>
 80049d0:	428a      	cmp	r2, r1
 80049d2:	4694      	mov	ip, r2
 80049d4:	d965      	bls.n	8004aa2 <__udivmoddi4+0xe2>
 80049d6:	fab2 f382 	clz	r3, r2
 80049da:	b143      	cbz	r3, 80049ee <__udivmoddi4+0x2e>
 80049dc:	fa02 fc03 	lsl.w	ip, r2, r3
 80049e0:	f1c3 0220 	rsb	r2, r3, #32
 80049e4:	409f      	lsls	r7, r3
 80049e6:	fa20 f202 	lsr.w	r2, r0, r2
 80049ea:	4317      	orrs	r7, r2
 80049ec:	409c      	lsls	r4, r3
 80049ee:	ea4f 4e1c 	mov.w	lr, ip, lsr #16
 80049f2:	fa1f f58c 	uxth.w	r5, ip
 80049f6:	fbb7 f1fe 	udiv	r1, r7, lr
 80049fa:	0c22      	lsrs	r2, r4, #16
 80049fc:	fb0e 7711 	mls	r7, lr, r1, r7
 8004a00:	ea42 4207 	orr.w	r2, r2, r7, lsl #16
 8004a04:	fb01 f005 	mul.w	r0, r1, r5
 8004a08:	4290      	cmp	r0, r2
 8004a0a:	d90a      	bls.n	8004a22 <__udivmoddi4+0x62>
 8004a0c:	eb1c 0202 	adds.w	r2, ip, r2
 8004a10:	f101 37ff 	add.w	r7, r1, #4294967295
 8004a14:	f080 811c 	bcs.w	8004c50 <__udivmoddi4+0x290>
 8004a18:	4290      	cmp	r0, r2
 8004a1a:	f240 8119 	bls.w	8004c50 <__udivmoddi4+0x290>
 8004a1e:	3902      	subs	r1, #2
 8004a20:	4462      	add	r2, ip
 8004a22:	1a12      	subs	r2, r2, r0
 8004a24:	b2a4      	uxth	r4, r4
 8004a26:	fbb2 f0fe 	udiv	r0, r2, lr
 8004a2a:	fb0e 2210 	mls	r2, lr, r0, r2
 8004a2e:	ea44 4402 	orr.w	r4, r4, r2, lsl #16
 8004a32:	fb00 f505 	mul.w	r5, r0, r5
 8004a36:	42a5      	cmp	r5, r4
 8004a38:	d90a      	bls.n	8004a50 <__udivmoddi4+0x90>
 8004a3a:	eb1c 0404 	adds.w	r4, ip, r4
 8004a3e:	f100 32ff 	add.w	r2, r0, #4294967295
 8004a42:	f080 8107 	bcs.w	8004c54 <__udivmoddi4+0x294>
 8004a46:	42a5      	cmp	r5, r4
 8004a48:	f240 8104 	bls.w	8004c54 <__udivmoddi4+0x294>
 8004a4c:	4464      	add	r4, ip
 8004a4e:	3802      	subs	r0, #2
 8004a50:	ea40 4001 	orr.w	r0, r0, r1, lsl #16
 8004a54:	1b64      	subs	r4, r4, r5
 8004a56:	2100      	movs	r1, #0
 8004a58:	b11e      	cbz	r6, 8004a62 <__udivmoddi4+0xa2>
 8004a5a:	40dc      	lsrs	r4, r3
 8004a5c:	2300      	movs	r3, #0
 8004a5e:	e9c6 4300 	strd	r4, r3, [r6]
 8004a62:	e8bd 87f0 	ldmia.w	sp!, {r4, r5, r6, r7, r8, r9, sl, pc}
 8004a66:	428b      	cmp	r3, r1
 8004a68:	d908      	bls.n	8004a7c <__udivmoddi4+0xbc>
 8004a6a:	2e00      	cmp	r6, #0
 8004a6c:	f000 80ed 	beq.w	8004c4a <__udivmoddi4+0x28a>
 8004a70:	2100      	movs	r1, #0
 8004a72:	e9c6 0500 	strd	r0, r5, [r6]
 8004a76:	4608      	mov	r0, r1
 8004a78:	e8bd 87f0 	ldmia.w	sp!, {r4, r5, r6, r7, r8, r9, sl, pc}
 8004a7c:	fab3 f183 	clz	r1, r3
 8004a80:	2900      	cmp	r1, #0
 8004a82:	d149      	bne.n	8004b18 <__udivmoddi4+0x158>
 8004a84:	42ab      	cmp	r3, r5
 8004a86:	d302      	bcc.n	8004a8e <__udivmoddi4+0xce>
 8004a88:	4282      	cmp	r2, r0
 8004a8a:	f200 80f8 	bhi.w	8004c7e <__udivmoddi4+0x2be>
 8004a8e:	1a84      	subs	r4, r0, r2
 8004a90:	eb65 0203 	sbc.w	r2, r5, r3
 8004a94:	2001      	movs	r0, #1
 8004a96:	4617      	mov	r7, r2
 8004a98:	2e00      	cmp	r6, #0
 8004a9a:	d0e2      	beq.n	8004a62 <__udivmoddi4+0xa2>
 8004a9c:	e9c6 4700 	strd	r4, r7, [r6]
 8004aa0:	e7df      	b.n	8004a62 <__udivmoddi4+0xa2>
 8004aa2:	b902      	cbnz	r2, 8004aa6 <__udivmoddi4+0xe6>
 8004aa4:	deff      	udf	#255	; 0xff
 8004aa6:	fab2 f382 	clz	r3, r2
 8004aaa:	2b00      	cmp	r3, #0
 8004aac:	f040 8090 	bne.w	8004bd0 <__udivmoddi4+0x210>
 8004ab0:	1a8a      	subs	r2, r1, r2
 8004ab2:	ea4f 471c 	mov.w	r7, ip, lsr #16
 8004ab6:	fa1f fe8c 	uxth.w	lr, ip
 8004aba:	2101      	movs	r1, #1
 8004abc:	fbb2 f5f7 	udiv	r5, r2, r7
 8004ac0:	fb07 2015 	mls	r0, r7, r5, r2
 8004ac4:	0c22      	lsrs	r2, r4, #16
 8004ac6:	ea42 4200 	orr.w	r2, r2, r0, lsl #16
 8004aca:	fb0e f005 	mul.w	r0, lr, r5
 8004ace:	4290      	cmp	r0, r2
 8004ad0:	d908      	bls.n	8004ae4 <__udivmoddi4+0x124>
 8004ad2:	eb1c 0202 	adds.w	r2, ip, r2
 8004ad6:	f105 38ff 	add.w	r8, r5, #4294967295
 8004ada:	d202      	bcs.n	8004ae2 <__udivmoddi4+0x122>
 8004adc:	4290      	cmp	r0, r2
 8004ade:	f200 80cb 	bhi.w	8004c78 <__udivmoddi4+0x2b8>
 8004ae2:	4645      	mov	r5, r8
 8004ae4:	1a12      	subs	r2, r2, r0
 8004ae6:	b2a4      	uxth	r4, r4
 8004ae8:	fbb2 f0f7 	udiv	r0, r2, r7
 8004aec:	fb07 2210 	mls	r2, r7, r0, r2
 8004af0:	ea44 4402 	orr.w	r4, r4, r2, lsl #16
 8004af4:	fb0e fe00 	mul.w	lr, lr, r0
 8004af8:	45a6      	cmp	lr, r4
 8004afa:	d908      	bls.n	8004b0e <__udivmoddi4+0x14e>
 8004afc:	eb1c 0404 	adds.w	r4, ip, r4
 8004b00:	f100 32ff 	add.w	r2, r0, #4294967295
 8004b04:	d202      	bcs.n	8004b0c <__udivmoddi4+0x14c>
 8004b06:	45a6      	cmp	lr, r4
 8004b08:	f200 80bb 	bhi.w	8004c82 <__udivmoddi4+0x2c2>
 8004b0c:	4610      	mov	r0, r2
 8004b0e:	eba4 040e 	sub.w	r4, r4, lr
 8004b12:	ea40 4005 	orr.w	r0, r0, r5, lsl #16
 8004b16:	e79f      	b.n	8004a58 <__udivmoddi4+0x98>
 8004b18:	f1c1 0720 	rsb	r7, r1, #32
 8004b1c:	408b      	lsls	r3, r1
 8004b1e:	fa22 fc07 	lsr.w	ip, r2, r7
 8004b22:	ea4c 0c03 	orr.w	ip, ip, r3
 8004b26:	fa05 f401 	lsl.w	r4, r5, r1
 8004b2a:	fa20 f307 	lsr.w	r3, r0, r7
 8004b2e:	40fd      	lsrs	r5, r7
 8004b30:	ea4f 491c 	mov.w	r9, ip, lsr #16
 8004b34:	4323      	orrs	r3, r4
 8004b36:	fbb5 f8f9 	udiv	r8, r5, r9
 8004b3a:	fa1f fe8c 	uxth.w	lr, ip
 8004b3e:	fb09 5518 	mls	r5, r9, r8, r5
 8004b42:	0c1c      	lsrs	r4, r3, #16
 8004b44:	ea44 4405 	orr.w	r4, r4, r5, lsl #16
 8004b48:	fb08 f50e 	mul.w	r5, r8, lr
 8004b4c:	42a5      	cmp	r5, r4
 8004b4e:	fa02 f201 	lsl.w	r2, r2, r1
 8004b52:	fa00 f001 	lsl.w	r0, r0, r1
 8004b56:	d90b      	bls.n	8004b70 <__udivmoddi4+0x1b0>
 8004b58:	eb1c 0404 	adds.w	r4, ip, r4
 8004b5c:	f108 3aff 	add.w	sl, r8, #4294967295
 8004b60:	f080 8088 	bcs.w	8004c74 <__udivmoddi4+0x2b4>
 8004b64:	42a5      	cmp	r5, r4
 8004b66:	f240 8085 	bls.w	8004c74 <__udivmoddi4+0x2b4>
 8004b6a:	f1a8 0802 	sub.w	r8, r8, #2
 8004b6e:	4464      	add	r4, ip
 8004b70:	1b64      	subs	r4, r4, r5
 8004b72:	b29d      	uxth	r5, r3
 8004b74:	fbb4 f3f9 	udiv	r3, r4, r9
 8004b78:	fb09 4413 	mls	r4, r9, r3, r4
 8004b7c:	ea45 4404 	orr.w	r4, r5, r4, lsl #16
 8004b80:	fb03 fe0e 	mul.w	lr, r3, lr
 8004b84:	45a6      	cmp	lr, r4
 8004b86:	d908      	bls.n	8004b9a <__udivmoddi4+0x1da>
 8004b88:	eb1c 0404 	adds.w	r4, ip, r4
 8004b8c:	f103 35ff 	add.w	r5, r3, #4294967295
 8004b90:	d26c      	bcs.n	8004c6c <__udivmoddi4+0x2ac>
 8004b92:	45a6      	cmp	lr, r4
 8004b94:	d96a      	bls.n	8004c6c <__udivmoddi4+0x2ac>
 8004b96:	3b02      	subs	r3, #2
 8004b98:	4464      	add	r4, ip
 8004b9a:	ea43 4308 	orr.w	r3, r3, r8, lsl #16
 8004b9e:	fba3 9502 	umull	r9, r5, r3, r2
 8004ba2:	eba4 040e 	sub.w	r4, r4, lr
 8004ba6:	42ac      	cmp	r4, r5
 8004ba8:	46c8      	mov	r8, r9
 8004baa:	46ae      	mov	lr, r5
 8004bac:	d356      	bcc.n	8004c5c <__udivmoddi4+0x29c>
 8004bae:	d053      	beq.n	8004c58 <__udivmoddi4+0x298>
 8004bb0:	b156      	cbz	r6, 8004bc8 <__udivmoddi4+0x208>
 8004bb2:	ebb0 0208 	subs.w	r2, r0, r8
 8004bb6:	eb64 040e 	sbc.w	r4, r4, lr
 8004bba:	fa04 f707 	lsl.w	r7, r4, r7
 8004bbe:	40ca      	lsrs	r2, r1
 8004bc0:	40cc      	lsrs	r4, r1
 8004bc2:	4317      	orrs	r7, r2
 8004bc4:	e9c6 7400 	strd	r7, r4, [r6]
 8004bc8:	4618      	mov	r0, r3
 8004bca:	2100      	movs	r1, #0
 8004bcc:	e8bd 87f0 	ldmia.w	sp!, {r4, r5, r6, r7, r8, r9, sl, pc}
 8004bd0:	f1c3 0120 	rsb	r1, r3, #32
 8004bd4:	fa02 fc03 	lsl.w	ip, r2, r3
 8004bd8:	fa20 f201 	lsr.w	r2, r0, r1
 8004bdc:	fa25 f101 	lsr.w	r1, r5, r1
 8004be0:	409d      	lsls	r5, r3
 8004be2:	432a      	orrs	r2, r5
 8004be4:	ea4f 471c 	mov.w	r7, ip, lsr #16
 8004be8:	fa1f fe8c 	uxth.w	lr, ip
 8004bec:	fbb1 f0f7 	udiv	r0, r1, r7
 8004bf0:	fb07 1510 	mls	r5, r7, r0, r1
 8004bf4:	0c11      	lsrs	r1, r2, #16
 8004bf6:	ea41 4105 	orr.w	r1, r1, r5, lsl #16
 8004bfa:	fb00 f50e 	mul.w	r5, r0, lr
 8004bfe:	428d      	cmp	r5, r1
 8004c00:	fa04 f403 	lsl.w	r4, r4, r3
 8004c04:	d908      	bls.n	8004c18 <__udivmoddi4+0x258>
 8004c06:	eb1c 0101 	adds.w	r1, ip, r1
 8004c0a:	f100 38ff 	add.w	r8, r0, #4294967295
 8004c0e:	d22f      	bcs.n	8004c70 <__udivmoddi4+0x2b0>
 8004c10:	428d      	cmp	r5, r1
 8004c12:	d92d      	bls.n	8004c70 <__udivmoddi4+0x2b0>
 8004c14:	3802      	subs	r0, #2
 8004c16:	4461      	add	r1, ip
 8004c18:	1b49      	subs	r1, r1, r5
 8004c1a:	b292      	uxth	r2, r2
 8004c1c:	fbb1 f5f7 	udiv	r5, r1, r7
 8004c20:	fb07 1115 	mls	r1, r7, r5, r1
 8004c24:	ea42 4201 	orr.w	r2, r2, r1, lsl #16
 8004c28:	fb05 f10e 	mul.w	r1, r5, lr
 8004c2c:	4291      	cmp	r1, r2
 8004c2e:	d908      	bls.n	8004c42 <__udivmoddi4+0x282>
 8004c30:	eb1c 0202 	adds.w	r2, ip, r2
 8004c34:	f105 38ff 	add.w	r8, r5, #4294967295
 8004c38:	d216      	bcs.n	8004c68 <__udivmoddi4+0x2a8>
 8004c3a:	4291      	cmp	r1, r2
 8004c3c:	d914      	bls.n	8004c68 <__udivmoddi4+0x2a8>
 8004c3e:	3d02      	subs	r5, #2
 8004c40:	4462      	add	r2, ip
 8004c42:	1a52      	subs	r2, r2, r1
 8004c44:	ea45 4100 	orr.w	r1, r5, r0, lsl #16
 8004c48:	e738      	b.n	8004abc <__udivmoddi4+0xfc>
 8004c4a:	4631      	mov	r1, r6
 8004c4c:	4630      	mov	r0, r6
 8004c4e:	e708      	b.n	8004a62 <__udivmoddi4+0xa2>
 8004c50:	4639      	mov	r1, r7
 8004c52:	e6e6      	b.n	8004a22 <__udivmoddi4+0x62>
 8004c54:	4610      	mov	r0, r2
 8004c56:	e6fb      	b.n	8004a50 <__udivmoddi4+0x90>
 8004c58:	4548      	cmp	r0, r9
 8004c5a:	d2a9      	bcs.n	8004bb0 <__udivmoddi4+0x1f0>
 8004c5c:	ebb9 0802 	subs.w	r8, r9, r2
 8004c60:	eb65 0e0c 	sbc.w	lr, r5, ip
 8004c64:	3b01      	subs	r3, #1
 8004c66:	e7a3      	b.n	8004bb0 <__udivmoddi4+0x1f0>
 8004c68:	4645      	mov	r5, r8
 8004c6a:	e7ea      	b.n	8004c42 <__udivmoddi4+0x282>
 8004c6c:	462b      	mov	r3, r5
 8004c6e:	e794      	b.n	8004b9a <__udivmoddi4+0x1da>
 8004c70:	4640      	mov	r0, r8
 8004c72:	e7d1      	b.n	8004c18 <__udivmoddi4+0x258>
 8004c74:	46d0      	mov	r8, sl
 8004c76:	e77b      	b.n	8004b70 <__udivmoddi4+0x1b0>
 8004c78:	3d02      	subs	r5, #2
 8004c7a:	4462      	add	r2, ip
 8004c7c:	e732      	b.n	8004ae4 <__udivmoddi4+0x124>
 8004c7e:	4608      	mov	r0, r1
 8004c80:	e70a      	b.n	8004a98 <__udivmoddi4+0xd8>
 8004c82:	4464      	add	r4, ip
 8004c84:	3802      	subs	r0, #2
 8004c86:	e742      	b.n	8004b0e <__udivmoddi4+0x14e>
